(lp1
(lp2
F1442228542
aF25.079499999999999
aF121.23
aF0
aF9
aF140
aa(lp3
F1442228547
aF25.079499999999999
aF121.23
aF0
aF9
aF140
aa(lp4
F1442228549
aF25.079499999999999
aF121.2299
aF0
aF9
aF140
aa(lp5
F1442228555
aF25.079599999999999
aF121.2299
aF0
aF9
aF149
aa(lp6
F1442228560
aF25.079599999999999
aF121.2299
aF0
aF9
aF154
aa(lp7
F1442228566
aF25.079599999999999
aF121.2298
aF0
aF9
aF168
aa(lp8
F1442228572
aF25.079699999999999
aF121.22969999999999
aF0
aF2
aF191
aa(lp9
F1442228579
aF25.079699999999999
aF121.22969999999999
aF0
aF2
aF205
aa(lp10
F1442228585
aF25.079799999999999
aF121.22969999999999
aF0
aF9
aF213
aa(lp11
F1442228592
aF25.079899999999999
aF121.2298
aF0
aF9
aF216
aa(lp12
F1442228599
aF25.079899999999999
aF121.2298
aF0
aF2
aF225
aa(lp13
F1442228605
aF25.079899999999999
aF121.2298
aF0
aF2
aF227
aa(lp14
F1442228612
aF25.079999999999998
aF121.2299
aF0
aF0
aF49
aa(lp15
F1442228616
aF25.079999999999998
aF121.2299
aF0
aF0
aF49
aa(lp16
F1442228623
aF25.079999999999998
aF121.2299
aF0
aF0
aF49
aa(lp17
F1442228626
aF25.079999999999998
aF121.2299
aF0
aF0
aF49
aa(lp18
F1442228636
aF25.079999999999998
aF121.2299
aF0
aF0
aF49
aa(lp19
F1442228643
aF25.079999999999998
aF121.2299
aF0
aF0
aF49
aa(lp20
F1442228646
aF25.079999999999998
aF121.2299
aF0
aF0
aF49
aa(lp21
F1442228656
aF25.079999999999998
aF121.2299
aF0
aF0
aF49
aa(lp22
F1442228663
aF25.079999999999998
aF121.2299
aF0
aF0
aF49
aa(lp23
F1442228667
aF25.079999999999998
aF121.2299
aF0
aF0
aF49
aa(lp24
F1442228673
aF25.079999999999998
aF121.2299
aF0
aF0
aF49
aa(lp25
F1442228677
aF25.079999999999998
aF121.2299
aF0
aF2
aF230
aa(lp26
F1442228686
aF25.079899999999999
aF121.2298
aF0
aF10
aF230
aa(lp27
F1442228700
aF25.079799999999999
aF121.2296
aF0
aF15
aF230
aa(lp28
F1442228708
aF25.079699999999999
aF121.2296
aF0
aF17
aF227
aa(lp29
F1442228710
aF25.079599999999999
aF121.2294
aF0
aF19
aF227
aa(lp30
F1442228713
aF25.079599999999999
aF121.22929999999999
aF0
aF20
aF227
aa(lp31
F1442228720
aF25.0793
aF121.2291
aF0
aF22
aF227
aa(lp32
F1442228726
aF25.0792
aF121.2289
aF0
aF23
aF230
aa(lp33
F1442228730
aF25.0791
aF121.2287
aF0
aF25
aF227
aa(lp34
F1442228740
aF25.078700000000001
aF121.2283
aF0
aF29
aF227
aa(lp35
F1442228743
aF25.078600000000002
aF121.2281
aF0
aF30
aF230
aa(lp36
F1442228746
aF25.078499999999998
aF121.22799999999999
aF0
aF31
aF230
aa(lp37
F1442228760
aF25.0779
aF121.2272
aF0
aF31
aF227
aa(lp38
F1442228763
aF25.0777
aF121.22709999999999
aF0
aF28
aF227
aa(lp39
F1442228772
aF25.077400000000001
aF121.2269
aF0
aF23
aF182
aa(lp40
F1442228781
aF25.077100000000002
aF121.227
aF0
aF22
aF143
aa(lp41
F1442228784
aF25.077000000000002
aF121.22709999999999
aF0
aF22
aF140
aa(lp42
F1442228787
aF25.076899999999998
aF121.2272
aF0
aF21
aF137
aa(lp43
F1442228799
aF25.076599999999999
aF121.22750000000001
aF0
aF20
aF140
aa(lp44
F1442228802
aF25.076499999999999
aF121.2276
aF0
aF20
aF140
aa(lp45
F1442228808
aF25.0763
aF121.2278
aF0
aF21
aF137
aa(lp46
F1442228813
aF25.0762
aF121.22790000000001
aF0
aF21
aF140
aa(lp47
F1442228815
aF25.0761
aF121.22799999999999
aF0
aF22
aF140
aa(lp48
F1442228820
aF25.076000000000001
aF121.2281
aF0
aF23
aF140
aa(lp49
F1442228832
aF25.075500000000002
aF121.2285
aF0
aF27
aF140
aa(lp50
F1442228841
aF25.075099999999999
aF121.2289
aF0
aF28
aF137
aa(lp51
F1442228848
aF25.0749
aF121.2291
aF0
aF29
aF140
aa(lp52
F1442228851
aF25.0747
aF121.22929999999999
aF0
aF30
aF137
aa(lp53
F1442228860
aF25.074300000000001
aF121.22969999999999
aF0
aF31
aF140
aa(lp54
F1442228869
aF25.073899999999998
aF121.23
aF0
aF31
aF137
aa(lp55
F1442228872
aF25.073799999999999
aF121.2302
aF0
aF32
aF140
aa(lp56
F1442228875
aF25.073699999999999
aF121.2303
aF0
aF32
aF137
aa(lp57
F1442228884
aF25.0732
aF121.2307
aF0
aF15
aF137
aa(lp58
F1442228887
aF25.073
aF121.23090000000001
aF0
aF15
aF137
aa(lp59
F1442228890
aF25.072800000000001
aF121.2311
aF0
aF15
aF137
aa(lp60
F1442228896
aF25.072500000000002
aF121.23139999999999
aF0
aF16
aF140
aa(lp61
F1442228899
aF25.072299999999998
aF121.2316
aF0
aF15
aF140
aa(lp62
F1442228910
aF25.0718
aF121.2321
aF0
aF15
aF140
aa(lp63
F1442228923
aF25.071100000000001
aF121.23269999999999
aF0
aF26
aF146
aa(lp64
F1442228926
aF25.070900000000002
aF121.2328
aF0
aF25
aF160
aa(lp65
F1442228936
aF25.070599999999999
aF121.23260000000001
aF0
aF23
aF219
aa(lp66
F1442228939
aF25.070499999999999
aF121.2325
aF0
aF22
aF222
aa(lp67
F1442228942
aF25.070399999999999
aF121.2324
aF0
aF22
aF227
aa(lp68
F1442228948
aF25.0702
aF121.23220000000001
aF0
aF25
aF227
aa(lp69
F1442228951
aF25.0701
aF121.2321
aF0
aF26
aF230
aa(lp70
F1442228960
aF25.069800000000001
aF121.2317
aF0
aF31
aF230
aa(lp71
F1442228963
aF25.069600000000001
aF121.2315
aF0
aF32
aF227
aa(lp72
F1442228969
aF25.069400000000002
aF121.2312
aF0
aF34
aF230
aa(lp73
F1442228972
aF25.069199999999999
aF121.23099999999999
aF0
aF15
aF230
aa(lp74
F1442228981
aF25.0688
aF121.2304
aF0
aF16
aF230
aa(lp75
F1442228984
aF25.0686
aF121.2302
aF0
aF17
aF230
aa(lp76
F1442228987
aF25.0684
aF121.23
aF0
aF18
aF227
aa(lp77
F1442228993
aF25.068100000000001
aF121.2296
aF0
aF20
aF227
aa(lp78
F1442228999
aF25.067699999999999
aF121.2291
aF0
aF22
aF230
aa(lp79
F1442229005
aF25.067399999999999
aF121.2287
aF0
aF23
aF227
aa(lp80
F1442229008
aF25.067
aF121.2281
aF0
aF24
aF230
aa(lp81
F1442229012
aF25.066700000000001
aF121.2278
aF0
aF24
aF230
aa(lp82
F1442229015
aF25.066600000000001
aF121.2276
aF0
aF24
aF230
aa(lp83
F1442229021
aF25.066299999999998
aF121.2272
aF0
aF24
aF227
aa(lp84
F1442229024
aF25.065899999999999
aF121.22669999999999
aF0
aF25
aF230
aa(lp85
F1442229033
aF25.065200000000001
aF121.2259
aF0
aF25
aF230
aa(lp86
F1442229036
aF25.065000000000001
aF121.2255
aF0
aF25
aF227
aa(lp87
F1442229039
aF25.064800000000002
aF121.22539999999999
aF0
aF25
aF230
aa(lp88
F1442229052
aF25.064
aF121.2243
aF0
aF17
aF227
aa(lp89
F1442229063
aF25.063400000000001
aF121.2236
aF0
aF15
aF227
aa(lp90
F1442229074
aF25.062999999999999
aF121.223
aF0
aF30
aF230
aa(lp91
F1442229076
aF25.062999999999999
aF121.223
aF0
aF30
aF227
aa(lp92
F1442229085
aF25.0626
aF121.2225
aF0
aF23
aF222
aa(lp93
F1442229088
aF25.0625
aF121.2225
aF0
aF22
aF213
aa(lp94
F1442229091
aF25.0624
aF121.2225
aF0
aF22
aF199
aa(lp95
F1442229097
aF25.062200000000001
aF121.2225
aF0
aF23
aF168
aa(lp96
F1442229109
aF25.061900000000001
aF121.2227
aF0
aF10
aF140
aa(lp97
F1442229122
aF25.061800000000002
aF121.2227
aF0
aF0
aF136
aa(lp98
F1442229128
aF25.061800000000002
aF121.2227
aF0
aF0
aF136
aa(lp99
F1442229137
aF25.061800000000002
aF121.2227
aF0
aF0
aF136
aa(lp100
F1442229158
aF25.061800000000002
aF121.2227
aF0
aF0
aF136
aa(lp101
F1442229167
aF25.061800000000002
aF121.2227
aF0
aF0
aF136
aa(lp102
F1442229173
aF25.061800000000002
aF121.2227
aF0
aF0
aF136
aa(lp103
F1442229190
aF25.061699999999998
aF121.2229
aF0
aF16
aF140
aa(lp104
F1442229193
aF25.061599999999999
aF121.2229
aF0
aF18
aF140
aa(lp105
F1442229196
aF25.061599999999999
aF121.223
aF0
aF19
aF140
aa(lp106
F1442229202
aF25.061399999999999
aF121.22320000000001
aF0
aF22
aF137
aa(lp107
F1442229205
aF25.061299999999999
aF121.22329999999999
aF0
aF23
aF137
aa(lp108
F1442229208
aF25.061199999999999
aF121.2234
aF0
aF23
aF129
aa(lp109
F1442229214
aF25.0611
aF121.2236
aF0
aF20
aF112
aa(lp110
F1442229220
aF25.0611
aF121.2238
aF0
aF16
aF87
aa(lp111
F1442229230
aF25.061199999999999
aF121.224
aF0
aF12
aF50
aa(lp112
F1442229233
aF25.061299999999999
aF121.224
aF0
aF2
aF47
aa(lp113
F1442229245
aF25.061299999999999
aF121.22410000000001
aF0
aF0
aF76
aa(lp114
F1442229248
aF25.061299999999999
aF121.22410000000001
aF0
aF0
aF76
aa(lp115
F1442229254
aF25.061299999999999
aF121.22410000000001
aF0
aF2
aF47
aa(lp116
F1442229257
aF25.061299999999999
aF121.22410000000001
aF0
aF15
aF50
aa(lp117
F1442229260
aF25.061399999999999
aF121.2242
aF0
aF27
aF50
aa(lp118
F1442229269
aF25.062100000000001
aF121.2251
aF0
aF42
aF47
aa(lp119
F1442229272
aF25.0626
aF121.2257
aF0
aF56
aF50
aa(lp120
F1442229281
aF25.064299999999999
aF121.22790000000001
aF0
aF88
aF47
aa(lp121
F1442229284
aF25.065899999999999
aF121.2299
aF0
aF105
aF47
aa(lp122
F1442229290
aF25.067499999999999
aF121.2319
aF0
aF125
aF50
aa(lp123
F1442229296
aF25.070499999999999
aF121.2358
aF0
aF145
aF50
aa(lp124
F1442229299
aF25.072800000000001
aF121.23869999999999
aF275
aF158
aF49
aa(lp125
F1442229305
aF25.0747
aF121.2411
aF500
aF155
aF48
aa(lp126
F1442229318
aF25.081600000000002
aF121.24930000000001
aF1275
aF142
aF47
aa(lp127
F1442229321
aF25.082999999999998
aF121.251
aF1425
aF140
aF47
aa(lp128
F1442229325
aF25.084499999999998
aF121.2529
aF1625
aF137
aF48
aa(lp129
F1442229332
aF25.087199999999999
aF121.2564
aF1975
aF133
aF49
aa(lp130
F1442229338
aF25.0899
aF121.26000000000001
aF2200
aF133
aF51
aa(lp131
F1442229349
aF25.0943
aF121.26600000000001
aF2375
aF141
aF51
aa(lp132
F1442229356
aF25.097200000000001
aF121.27
aF2500
aF149
aF51
aa(lp133
F1442229367
aF25.1023
aF121.277
aF2800
aF159
aF51
aa(lp134
F1442229371
aF25.104299999999999
aF121.27970000000001
aF2925
aF160
aF50
aa(lp135
F1442229380
aF25.107399999999998
aF121.2837
aF3075
aF164
aF50
aa(lp136
F1442229388
aF25.1127
aF121.29049999999999
aF3325
aF168
aF49
aa(lp137
F1442229392
aF25.114799999999999
aF121.2927
aF3425
aF169
aF46
aa(lp138
F1442229397
aF25.1174
aF121.2949
aF3525
aF174
aF37
aa(lp139
F1442229411
aF25.129100000000001
aF121.2988
aF3850
aF192
aF1
aa(lp140
F1442229431
aF25.1174
aF121.2949
aF4375
aF175
aF35
aa(lp141
F1442229454
aF25.169899999999998
aF121.2894
aF4650
aF231
aF357
aa(lp142
F1442229457
aF25.173400000000001
aF121.28919999999999
aF4675
aF237
aF357
aa(lp143
F1442229466
aF25.1844
aF121.2889
aF4825
aF252
aF358
aa(lp144
F1442229469
aF25.187999999999999
aF121.28879999999999
aF4900
aF256
aF358
aa(lp145
F1442229472
aF25.1905
aF121.28870000000001
aF4950
aF260
aF358
aa(lp146
F1442229478
aF25.1981
aF121.2885
aF5075
aF268
aF358
aa(lp147
F1442229484
aF25.206499999999998
aF121.2882
aF5200
aF276
aF358
aa(lp148
F1442229490
aF25.2149
aF121.28789999999999
aF5375
aF282
aF358
aa(lp149
F1442229496
aF25.222000000000001
aF121.2877
aF5625
aF285
aF358
aa(lp150
F1442229506
aF25.234200000000001
aF121.2872
aF6000
aF288
aF358
aa(lp151
F1442229517
aF25.251100000000001
aF121.2867
aF6650
aF287
aF358
aa(lp152
F1442229520
aF25.2545
aF121.2865
aF6850
aF286
aF358
aa(lp153
F1442229526
aF25.2624
aF121.2863
aF7200
aF283
aF357
aa(lp154
F1442229530
aF25.2669
aF121.2861
aF7375
aF282
aF357
aa(lp155
F1442229533
aF25.271000000000001
aF121.2859
aF7500
aF281
aF357
aa(lp156
F1442229536
aF25.274999999999999
aF121.28579999999999
aF7650
aF282
aF357
aa(lp157
F1442229546
aF25.286300000000001
aF121.28530000000001
aF8050
aF284
aF357
aa(lp158
F1442229554
aF25.298999999999999
aF121.28489999999999
aF8425
aF287
aF358
aa(lp159
F1442229557
aF25.3032
aF121.2848
aF8525
aF288
aF358
aa(lp160
F1442229560
aF25.307300000000001
aF121.2846
aF8650
aF289
aF358
aa(lp161
F1442229569
aF25.3186
aF121.2842
aF8950
aF293
aF358
aa(lp162
F1442229572
aF25.323
aF121.28400000000001
aF9075
aF295
aF358
aa(lp163
F1442229578
aF25.331299999999999
aF121.2837
aF9300
aF297
aF358
aa(lp164
F1442229581
aF25.335699999999999
aF121.28360000000001
aF9425
aF298
aF358
aa(lp165
F1442229593
aF25.352399999999999
aF121.283
aF9875
aF303
aF357
aa(lp166
F1442229596
aF25.3569
aF121.28279999999999
aF9950
aF304
aF358
aa(lp167
F1442229599
aF25.361799999999999
aF121.28279999999999
aF10075
aF306
aF359
aa(lp168
F1442229622
aF25.392700000000001
aF121.29170000000001
aF10625
aF322
aF27
aa(lp169
F1442229634
aF25.407499999999999
aF121.30549999999999
aF10800
aF337
aF46
aa(lp170
F1442229638
aF25.41
aF121.3086
aF10850
aF339
aF47
aa(lp171
F1442229640
aF25.412299999999998
aF121.31140000000001
aF10900
aF342
aF48
aa(lp172
F1442229652
aF25.426300000000001
aF121.32940000000001
aF11100
aF354
aF49
aa(lp173
F1442229658
aF25.433
aF121.3381
aF11175
aF360
aF49
aa(lp174
F1442229661
aF25.435199999999998
aF121.3409
aF11200
aF363
aF49
aa(lp175
F1442229665
aF25.438500000000001
aF121.34520000000001
aF11250
aF366
aF49
aa(lp176
F1442229667
aF25.442499999999999
aF121.35039999999999
aF11300
aF370
aF49
aa(lp177
F1442229677
aF25.452999999999999
aF121.3639
aF11425
aF379
aF49
aa(lp178
F1442229682
aF25.460899999999999
aF121.374
aF11550
aF385
aF49
aa(lp179
F1442229685
aF25.463699999999999
aF121.3776
aF11600
aF387
aF49
aa(lp180
F1442229694
aF25.473600000000001
aF121.3903
aF11825
aF392
aF49
aa(lp181
F1442229697
aF25.477900000000002
aF121.39579999999999
aF11925
aF393
aF49
aa(lp182
F1442229706
aF25.4895
aF121.4105
aF12250
aF396
aF49
aa(lp183
F1442229709
aF25.492100000000001
aF121.4139
aF12350
aF397
aF49
aa(lp184
F1442229715
aF25.499600000000001
aF121.4234
aF12550
aF398
aF49
aa(lp185
F1442229725
aF25.5105
aF121.4374
aF12825
aF401
aF49
aa(lp186
F1442229728
aF25.514900000000001
aF121.443
aF12925
aF401
aF49
aa(lp187
F1442229734
aF25.5212
aF121.4511
aF13125
aF404
aF49
aa(lp188
F1442229737
aF25.5242
aF121.45480000000001
aF13200
aF404
aF49
aa(lp189
F1442229743
aF25.532800000000002
aF121.4658
aF13425
aF405
aF49
aa(lp190
F1442229749
aF25.540400000000002
aF121.4756
aF13625
aF405
aF49
aa(lp191
F1442229753
aF25.5441
aF121.4803
aF13725
aF406
aF49
aa(lp192
F1442229764
aF25.5579
aF121.498
aF14100
aF407
aF49
aa(lp193
F1442229767
aF25.562100000000001
aF121.5033
aF14225
aF408
aF49
aa(lp194
F1442229777
aF25.573
aF121.51730000000001
aF14475
aF409
aF49
aa(lp195
F1442229782
aF25.5807
aF121.52719999999999
aF14725
aF410
aF49
aa(lp196
F1442229785
aF25.584499999999998
aF121.53189999999999
aF14825
aF410
aF49
aa(lp197
F1442229791
aF25.591899999999999
aF121.5415
aF15000
aF410
aF49
aa(lp198
F1442229797
aF25.6004
aF121.5523
aF15175
aF411
aF49
aa(lp199
F1442229803
aF25.6082
aF121.56229999999999
aF15325
aF414
aF49
aa(lp200
F1442229809
aF25.6144
aF121.5703
aF15475
aF415
aF49
aa(lp201
F1442229815
aF25.623000000000001
aF121.5813
aF15675
aF416
aF49
aa(lp202
F1442229818
aF25.625599999999999
aF121.58450000000001
aF15750
aF416
aF49
aa(lp203
F1442229821
aF25.627300000000002
aF121.5868
aF15800
aF416
aF49
aa(lp204
F1442229829
aF25.640699999999999
aF121.604
aF16125
aF416
aF49
aa(lp205
F1442229838
aF25.650500000000001
aF121.61660000000001
aF16375
aF416
aF49
aa(lp206
F1442229841
aF25.654299999999999
aF121.62139999999999
aF16475
aF416
aF49
aa(lp207
F1442229847
aF25.6614
aF121.6305
aF16625
aF418
aF49
aa(lp208
F1442229851
aF25.6677
aF121.6386
aF16750
aF418
aF49
aa(lp209
F1442229854
aF25.6707
aF121.6425
aF16825
aF419
aF49
aa(lp210
F1442229857
aF25.673999999999999
aF121.6467
aF16925
aF419
aF49
aa(lp211
F1442229868
aF25.688500000000001
aF121.6653
aF17275
aF418
aF49
aa(lp212
F1442229874
aF25.693000000000001
aF121.6711
aF17375
aF419
aF49
aa(lp213
F1442229879
aF25.7012
aF121.6816
aF17525
aF420
aF49
aa(lp214
F1442229889
aF25.715299999999999
aF121.69970000000001
aF17725
aF423
aF49
aa(lp215
F1442229893
aF25.720700000000001
aF121.70659999999999
aF17800
aF426
aF49
aa(lp216
F1442229898
aF25.729500000000002
aF121.7179
aF17925
aF428
aF49
aa(lp217
F1442229904
aF25.7346
aF121.7246
aF18025
aF429
aF49
aa(lp218
F1442229909
aF25.7422
aF121.7343
aF18175
aF430
aF49
aa(lp219
F1442229919
aF25.755700000000001
aF121.7517
aF18500
aF429
aF49
aa(lp220
F1442229924
aF25.762699999999999
aF121.7607
aF18675
aF428
aF49
aa(lp221
F1442229934
aF25.774899999999999
aF121.77630000000001
aF18925
aF429
aF49
aa(lp222
F1442229940
aF25.782699999999998
aF121.7865
aF19025
aF431
aF49
aa(lp223
F1442229945
aF25.7895
aF121.79510000000001
aF19125
aF432
aF49
aa(lp224
F1442229950
aF25.795400000000001
aF121.80240000000001
aF19225
aF432
aF47
aa(lp225
F1442229955
aF25.8002
aF121.8079
aF19300
aF433
aF46
aa(lp226
F1442229960
aF25.810099999999998
aF121.81829999999999
aF19450
aF433
aF42
aa(lp227
F1442229965
aF25.818100000000001
aF121.8257
aF19600
aF432
aF39
aa(lp228
F1442229971
aF25.8248
aF121.83150000000001
aF19675
aF433
aF37
aa(lp229
F1442229977
aF25.834399999999999
aF121.8394
aF19800
aF433
aF36
aa(lp230
F1442229982
aF25.844200000000001
aF121.84739999999999
aF19875
aF437
aF36
aa(lp231
F1442229987
aF25.8537
aF121.85509999999999
aF19975
aF437
aF36
aa(lp232
F1442229992
aF25.859000000000002
aF121.85939999999999
aF20050
aF439
aF36
aa(lp233
F1442229999
aF25.8705
aF121.8687
aF20200
aF440
aF36
aa(lp234
F1442230007
aF25.886600000000001
aF121.8817
aF20500
aF440
aF36
aa(lp235
F1442230013
aF25.895800000000001
aF121.8892
aF20650
aF439
aF36
aa(lp236
F1442230018
aF25.9053
aF121.8969
aF20750
aF440
aF36
aa(lp237
F1442230023
aF25.910299999999999
aF121.901
aF20800
aF441
aF36
aa(lp238
F1442230029
aF25.921299999999999
aF121.9098
aF20850
aF445
aF36
aa(lp239
F1442230035
aF25.930299999999999
aF121.9171
aF20950
aF446
aF36
aa(lp240
F1442230039
aF25.939699999999998
aF121.9247
aF21025
aF447
aF36
aa(lp241
F1442230045
aF25.9467
aF121.93049999999999
aF21100
aF448
aF36
aa(lp242
F1442230055
aF25.967700000000001
aF121.9474
aF21300
aF451
aF36
aa(lp243
F1442230061
aF25.9771
aF121.9551
aF21400
aF453
aF36
aa(lp244
F1442230066
aF25.985600000000002
aF121.962
aF21500
aF455
aF36
aa(lp245
F1442230071
aF25.9924
aF121.9675
aF21600
aF455
aF36
aa(lp246
F1442230076
aF26.002400000000002
aF121.9755
aF21700
aF455
aF36
aa(lp247
F1442230081
aF26.011600000000001
aF121.983
aF21825
aF456
aF36
aa(lp248
F1442230086
aF26.0181
aF121.9883
aF21875
aF457
aF36
aa(lp249
F1442230092
aF26.022200000000002
aF121.99160000000001
aF21950
aF457
aF36
aa(lp250
F1442230097
aF26.032800000000002
aF122.00020000000001
aF22075
aF458
aF36
aa(lp251
F1442230102
aF26.0442
aF122.0094
aF22225
aF458
aF35
aa(lp252
F1442230112
aF26.064299999999999
aF122.02509999999999
aF22475
aF458
aF35
aa(lp253
F1442230123
aF26.0825
aF122.03919999999999
aF22700
aF459
aF35
aa(lp254
F1442230128
aF26.088799999999999
aF122.0441
aF22775
aF460
aF35
aa(lp255
F1442230134
aF26.101700000000001
aF122.05410000000001
aF22900
aF461
aF35
aa(lp256
F1442230138
aF26.1098
aF122.0604
aF22975
aF461
aF35
aa(lp257
F1442230144
aF26.118200000000002
aF122.0669
aF23075
aF462
aF35
aa(lp258
F1442230153
aF26.1326
aF122.0782
aF23225
aF463
aF35
aa(lp259
F1442230164
aF26.153400000000001
aF122.09439999999999
aF23425
aF465
aF35
aa(lp260
F1442230169
aF26.1629
aF122.1019
aF23525
aF466
aF35
aa(lp261
F1442230174
aF26.173200000000001
aF122.11
aF23600
aF467
aF35
aa(lp262
F1442230179
aF26.181699999999999
aF122.11669999999999
aF23675
aF468
aF35
aa(lp263
F1442230189
aF26.195900000000002
aF122.12779999999999
aF23800
aF469
aF35
aa(lp264
F1442230195
aF26.209099999999999
aF122.13809999999999
aF24000
aF469
aF35
aa(lp265
F1442230201
aF26.215499999999999
aF122.1431
aF24075
aF469
aF35
aa(lp266
F1442230207
aF26.226900000000001
aF122.152
aF24200
aF469
aF35
aa(lp267
F1442230221
aF26.254999999999999
aF122.17400000000001
aF24450
aF470
aF35
aa(lp268
F1442230224
aF26.258600000000001
aF122.1768
aF24500
aF470
aF35
aa(lp269
F1442230227
aF26.2622
aF122.1797
aF24500
aF471
aF35
aa(lp270
F1442230236
aF26.284700000000001
aF122.1974
aF24675
aF472
aF35
aa(lp271
F1442230248
aF26.305599999999998
aF122.21380000000001
aF24850
aF476
aF35
aa(lp272
F1442230268
aF26.336300000000001
aF122.238
aF25125
aF477
aF35
aa(lp273
F1442230273
aF26.347899999999999
aF122.2471
aF25250
aF477
aF35
aa(lp274
F1442230289
aF26.377600000000001
aF122.2705
aF25525
aF479
aF35
aa(lp275
F1442230292
aF26.383099999999999
aF122.2748
aF25575
aF479
aF35
aa(lp276
F1442230298
aF26.3947
aF122.2839
aF25675
aF480
aF35
aa(lp277
F1442230304
aF26.4056
aF122.2925
aF25775
aF480
aF35
aa(lp278
F1442230310
aF26.416899999999998
aF122.3014
aF25900
aF480
aF35
aa(lp279
F1442230316
aF26.4267
aF122.3091
aF26000
aF480
aF35
aa(lp280
F1442230322
aF26.4391
aF122.3189
aF26100
aF481
aF35
aa(lp281
F1442230325
aF26.4453
aF122.3237
aF26150
aF481
aF35
aa(lp282
F1442230328
aF26.4496
aF122.3272
aF26200
aF481
aF35
aa(lp283
F1442230334
aF26.459499999999998
aF122.3349
aF26325
aF481
aF35
aa(lp284
F1442230340
aF26.472200000000001
aF122.345
aF26425
aF481
aF35
aa(lp285
F1442230346
aF26.483499999999999
aF122.3539
aF26525
aF481
aF35
aa(lp286
F1442230350
aF26.488600000000002
aF122.3579
aF26575
aF481
aF35
aa(lp287
F1442230358
aF26.5014
aF122.36799999999999
aF26675
aF482
aF35
aa(lp288
F1442230361
aF26.509
aF122.3741
aF26725
aF483
aF35
aa(lp289
F1442230365
aF26.516400000000001
aF122.3798
aF26775
aF483
aF35
aa(lp290
F1442230370
aF26.5273
aF122.38849999999999
aF26875
aF484
aF35
aa(lp291
F1442230378
aF26.536100000000001
aF122.3954
aF26925
aF484
aF35
aa(lp292
F1442230380
aF26.540199999999999
aF122.3986
aF26950
aF484
aF35
aa(lp293
F1442230390
aF26.5611
aF122.4151
aF27000
aF484
aF35
aa(lp294
F1442230398
aF26.575700000000001
aF122.4267
aF27000
aF484
aF35
aa(lp295
F1442230410
aF26.599499999999999
aF122.4455
aF27025
aF484
aF35
aa(lp296
F1442230413
aF26.605
aF122.4498
aF27025
aF484
aF35
aa(lp297
F1442230416
aF26.610099999999999
aF122.4539
aF27000
aF484
aF35
aa(lp298
F1442230425
aF26.6251
aF122.4658
aF27000
aF484
aF35
aa(lp299
F1442230436
aF26.6435
aF122.4803
aF27000
aF486
aF35
aa(lp300
F1442230442
aF26.658200000000001
aF122.492
aF27000
aF486
aF35
aa(lp301
F1442230445
aF26.664100000000001
aF122.4966
aF27000
aF486
aF35
aa(lp302
F1442230448
aF26.6692
aF122.50069999999999
aF27000
aF486
aF35
aa(lp303
F1442230457
aF26.684999999999999
aF122.5132
aF27000
aF486
aF35
aa(lp304
F1442230460
aF26.691199999999998
aF122.51819999999999
aF27000
aF486
aF35
aa(lp305
F1442230466
aF26.702300000000001
aF122.52679999999999
aF27000
aF485
aF35
aa(lp306
F1442230469
aF26.7074
aF122.5309
aF27000
aF484
aF35
aa(lp307
F1442230473
aF26.713999999999999
aF122.53619999999999
aF27000
aF484
aF35
aa(lp308
F1442230482
aF26.7286
aF122.5478
aF27000
aF485
aF35
aa(lp309
F1442230490
aF26.747
aF122.56229999999999
aF27000
aF486
aF35
aa(lp310
F1442230496
aF26.757300000000001
aF122.57040000000001
aF27000
aF486
aF35
aa(lp311
F1442230502
aF26.766500000000001
aF122.57769999999999
aF27000
aF486
aF35
aa(lp312
F1442230505
aF26.7742
aF122.5839
aF27000
aF486
aF35
aa(lp313
F1442230521
aF26.8019
aF122.6058
aF27000
aF488
aF35
aa(lp314
F1442230526
aF26.8126
aF122.6142
aF27000
aF488
aF35
aa(lp315
F1442230529
aF26.816299999999998
aF122.6172
aF27000
aF488
aF35
aa(lp316
F1442230538
aF26.834
aF122.63120000000001
aF27000
aF488
aF35
aa(lp317
F1442230544
aF26.8476
aF122.6421
aF27000
aF488
aF35
aa(lp318
F1442230550
aF26.856400000000001
aF122.6491
aF27000
aF488
aF35
aa(lp319
F1442230556
aF26.8675
aF122.6579
aF27000
aF488
aF35
aa(lp320
F1442230562
aF26.878900000000002
aF122.667
aF27000
aF488
aF35
aa(lp321
F1442230565
aF26.8855
aF122.67230000000001
aF27000
aF489
aF35
aa(lp322
F1442230568
aF26.8918
aF122.6773
aF27000
aF489
aF35
aa(lp323
F1442230581
aF26.913599999999999
aF122.6947
aF27000
aF488
aF35
aa(lp324
F1442230583
aF26.9194
aF122.6994
aF27000
aF488
aF35
aa(lp325
F1442230592
aF26.934899999999999
aF122.71169999999999
aF27000
aF488
aF35
aa(lp326
F1442230598
aF26.946000000000002
aF122.7206
aF27000
aF488
aF35
aa(lp327
F1442230609
aF26.961500000000001
aF122.7329
aF27000
aF489
aF35
aa(lp328
F1442230614
aF26.974699999999999
aF122.7435
aF27000
aF489
aF35
aa(lp329
F1442230626
aF26.996200000000002
aF122.7606
aF27000
aF489
aF35
aa(lp330
F1442230629
aF27.001000000000001
aF122.76439999999999
aF27000
aF489
aF35
aa(lp331
F1442230638
aF27.017900000000001
aF122.77800000000001
aF27000
aF489
aF35
aa(lp332
F1442230650
aF27.040500000000002
aF122.79600000000001
aF27000
aF489
aF35
aa(lp333
F1442230653
aF27.046500000000002
aF122.8006
aF27000
aF489
aF34
aa(lp334
F1442230656
aF27.0502
aF122.8035
aF27000
aF490
aF34
aa(lp335
F1442230665
aF27.070399999999999
aF122.8181
aF27000
aF489
aF32
aa(lp336
F1442230674
aF27.085999999999999
aF122.82859999999999
aF27000
aF488
aF30
aa(lp337
F1442230677
aF27.093
aF122.83320000000001
aF27000
aF489
aF30
aa(lp338
F1442230680
aF27.0962
aF122.8351
aF27000
aF489
aF29
aa(lp339
F1442230686
aF27.111699999999999
aF122.8446
aF27000
aF489
aF28
aa(lp340
F1442230692
aF27.122499999999999
aF122.8509
aF27000
aF488
aF27
aa(lp341
F1442230695
aF27.128599999999999
aF122.8544
aF27000
aF488
aF26
aa(lp342
F1442230701
aF27.141300000000001
aF122.8612
aF27000
aF488
aF25
aa(lp343
F1442230710
aF27.1614
aF122.87179999999999
aF27000
aF488
aF25
aa(lp344
F1442230713
aF27.165500000000002
aF122.87390000000001
aF27000
aF488
aF25
aa(lp345
F1442230716
aF27.173300000000001
aF122.8781
aF27000
aF488
aF25
aa(lp346
F1442230720
aF27.178999999999998
aF122.8811
aF27000
aF488
aF25
aa(lp347
F1442230729
aF27.194600000000001
aF122.88930000000001
aF27000
aF488
aF25
aa(lp348
F1442230731
aF27.203199999999999
aF122.8939
aF27000
aF489
aF25
aa(lp349
F1442230741
aF27.223299999999998
aF122.9045
aF27000
aF490
aF25
aa(lp350
F1442230743
aF27.227900000000002
aF122.90689999999999
aF27000
aF489
aF25
aa(lp351
F1442230749
aF27.240600000000001
aF122.9136
aF27000
aF489
aF25
aa(lp352
F1442230753
aF27.247599999999998
aF122.9174
aF27000
aF490
aF25
aa(lp353
F1442230758
aF27.259899999999998
aF122.9239
aF27000
aF489
aF25
aa(lp354
F1442230764
aF27.272200000000002
aF122.93040000000001
aF27000
aF489
aF25
aa(lp355
F1442230776
aF27.294799999999999
aF122.9423
aF27000
aF489
aF25
aa(lp356
F1442230782
aF27.305099999999999
aF122.9477
aF27000
aF489
aF25
aa(lp357
F1442230785
aF27.3108
aF122.9507
aF27000
aF489
aF25
aa(lp358
F1442230810
aF27.305099999999999
aF122.9477
aF27000
aF489
aF25
aa(lp359
F1442230835
aF27.352900000000002
aF122.9524
aF27000
aF489
aF5
aa(lp360
F1442230847
aF27.376000000000001
aF122.9528
aF27000
aF489
aF1
aa(lp361
F1442230859
aF27.399100000000001
aF122.9533
aF27000
aF489
aF1
aa(lp362
F1442230871
aF27.4222
aF122.9537
aF27000
aF489
aF1
aa(lp363
F1442230883
aF27.4452
aF122.9542
aF27000
aF489
aF1
aa(lp364
F1442230895
aF27.468299999999999
aF122.9547
aF27000
aF489
aF1
aa(lp365
F1442230907
aF27.491399999999999
aF122.9551
aF27000
aF489
aF1
aa(lp366
F1442230919
aF27.514500000000002
aF122.9556
aF27000
aF489
aF1
aa(lp367
F1442230947
aF27.576000000000001
aF123.06789999999999
aF27000
aF490
aF5
aa(lp368
F1442230959
aF27.5991
aF123.0684
aF27000
aF490
aF1
aa(lp369
F1442230971
aF27.622199999999999
aF123.0688
aF27000
aF490
aF1
aa(lp370
F1442230979
aF27.7089
aF123.1615
aF27000
aF490
aF25
aa(lp371
F1442230990
aF27.7364
aF123.17619999999999
aF27000
aF490
aF25
aa(lp372
F1442230993
aF27.740100000000002
aF123.1782
aF27000
aF490
aF25
aa(lp373
F1442230997
aF27.7483
aF123.18259999999999
aF27000
aF490
aF25
aa(lp374
F1442231002
aF27.758199999999999
aF123.1878
aF27000
aF490
aF25
aa(lp375
F1442231008
aF27.772600000000001
aF123.1956
aF27000
aF490
aF25
aa(lp376
F1442231014
aF27.784099999999999
aF123.2017
aF27000
aF490
aF25
aa(lp377
F1442231018
aF27.791799999999999
aF123.2059
aF27000
aF489
aF25
aa(lp378
F1442231020
aF27.797999999999998
aF123.20910000000001
aF27000
aF489
aF25
aa(lp379
F1442231045
aF27.846499999999999
aF123.2349
aF27000
aF489
aF25
aa(lp380
F1442231054
aF27.863299999999999
aF123.24379999999999
aF27000
aF491
aF25
aa(lp381
F1442231060
aF27.876100000000001
aF123.25060000000001
aF27000
aF491
aF25
aa(lp382
F1442231069
aF27.896699999999999
aF123.2616
aF26975
aF491
aF25
aa(lp383
F1442231078
aF27.913900000000002
aF123.2709
aF26975
aF487
aF25
aa(lp384
F1442231081
aF27.921199999999999
aF123.2747
aF27000
aF485
aF25
aa(lp385
F1442231084
aF27.927199999999999
aF123.27800000000001
aF27000
aF483
aF25
aa(lp386
F1442231093
aF27.9466
aF123.2884
aF27025
aF479
aF25
aa(lp387
F1442231096
aF27.952100000000002
aF123.29130000000001
aF27025
aF478
aF25
aa(lp388
F1442231102
aF27.965
aF123.29819999999999
aF27025
aF478
aF25
aa(lp389
F1442231108
aF27.972100000000001
aF123.30200000000001
aF27025
aF476
aF25
aa(lp390
F1442231117
aF27.992899999999999
aF123.31310000000001
aF27000
aF475
aF25
aa(lp391
F1442231126
aF28.012799999999999
aF123.3237
aF27000
aF475
aF25
aa(lp392
F1442231138
aF28.035900000000002
aF123.3361
aF27000
aF475
aF25
aa(lp393
F1442231147
aF28.0534
aF123.3454
aF27000
aF475
aF25
aa(lp394
F1442231153
aF28.0657
aF123.35209999999999
aF27000
aF475
aF25
aa(lp395
F1442231179
aF28.114100000000001
aF123.3569
aF27000
aF475
aF5
aa(lp396
F1442231191
aF28.136500000000002
aF123.3569
aF27000
aF475
aF0
aa(lp397
F1442231322
aF28.0657
aF123.35209999999999
aF27000
aF477
aF25
aa(lp398
F1442231347
aF28.112400000000001
aF123.3567
aF27000
aF477
aF5
aa(lp399
F1442231359
aF28.134899999999998
aF123.3567
aF27000
aF477
aF0
aa(lp400
F1442231396
aF28.544499999999999
aF123.61
aF28200
aF466
aF25
aa(lp401
F1442231399
aF28.554200000000002
aF123.6153
aF28300
aF465
aF25
aa(lp402
F1442231405
aF28.567900000000002
aF123.62269999999999
aF28500
aF464
aF25
aa(lp403
F1442231417
aF28.5898
aF123.63460000000001
aF28925
aF458
aF25
aa(lp404
F1442231420
aF28.591699999999999
aF123.6356
aF28975
aF458
aF25
aa(lp405
F1442231426
aF28.605799999999999
aF123.64319999999999
aF29200
aF455
aF24
aa(lp406
F1442231432
aF28.619700000000002
aF123.6499
aF29375
aF452
aF23
aa(lp407
F1442231436
aF28.625499999999999
aF123.65260000000001
aF29425
aF451
aF22
aa(lp408
F1442231440
aF28.6325
aF123.6558
aF29475
aF451
aF21
aa(lp409
F1442231447
aF28.6478
aF123.6622
aF29575
aF451
aF21
aa(lp410
F1442231454
aF28.657699999999998
aF123.66589999999999
aF29625
aF450
aF18
aa(lp411
F1442231462
aF28.680099999999999
aF123.6735
aF29750
aF451
aF15
aa(lp412
F1442231468
aF28.687799999999999
aF123.6758
aF29800
aF451
aF14
aa(lp413
F1442231477
aF28.704499999999999
aF123.68040000000001
aF29875
aF451
aF13
aa(lp414
F1442231480
aF28.716799999999999
aF123.6833
aF29950
aF451
aF11
aa(lp415
F1442231489
aF28.731200000000001
aF123.6863
aF30050
aF451
aF10
aa(lp416
F1442231493
aF28.736899999999999
aF123.6875
aF30100
aF451
aF10
aa(lp417
F1442231501
aF28.760000000000002
aF123.6931
aF30250
aF453
aF12
aa(lp418
F1442231507
aF28.7681
aF123.6953
aF30300
aF453
aF12
aa(lp419
F1442231513
aF28.783200000000001
aF123.6999
aF30425
aF456
aF15
aa(lp420
F1442231517
aF28.7898
aF123.7021
aF30450
aF456
aF15
aa(lp421
F1442231522
aF28.802399999999999
aF123.70650000000001
aF30525
aF458
aF17
aa(lp422
F1442231534
aF28.824200000000001
aF123.7146
aF30650
aF460
aF18
aa(lp423
F1442231538
aF28.8307
aF123.717
aF30700
aF460
aF18
aa(lp424
F1442231546
aF28.849399999999999
aF123.72369999999999
aF30850
aF461
aF17
aa(lp425
F1442231553
aF28.862500000000001
aF123.7281
aF30950
aF459
aF16
aa(lp426
F1442231559
aF28.8752
aF123.732
aF31075
aF458
aF14
aa(lp427
F1442231564
aF28.886399999999998
aF123.735
aF31150
aF458
aF14
aa(lp428
F1442231574
aF28.903300000000002
aF123.7392
aF31350
aF455
aF12
aa(lp429
F1442231599
aF28.948
aF123.7392
aF31350
aF455
aF0
aa(lp430
F1442231664
aF29.024000000000001
aF123.75149999999999
aF32800
aF446
aF8
aa(lp431
F1442231691
aF29.071300000000001
aF123.75149999999999
aF32800
aF446
aF0
aa(lp432
F1442231713
aF29.194299999999998
aF123.7517
aF33000
aF458
aF0
aa(lp433
F1442231724
aF29.218699999999998
aF123.7517
aF33000
aF458
aF0
aa(lp434
F1442231727
aF29.2255
aF123.7517
aF33000
aF458
aF0
aa(lp435
F1442231751
aF29.276399999999999
aF123.7518
aF33000
aF466
aF0
aa(lp436
F1442231769
aF29.316199999999998
aF123.75190000000001
aF33000
aF467
aF0
aa(lp437
F1442231772
aF29.324000000000002
aF123.75190000000001
aF33000
aF467
aF0
aa(lp438
F1442231781
aF29.342199999999998
aF123.75190000000001
aF33000
aF468
aF0
aa(lp439
F1442231785
aF29.349599999999999
aF123.75190000000001
aF33000
aF468
aF0
aa(lp440
F1442231787
aF29.354800000000001
aF123.75190000000001
aF33000
aF468
aF0
aa(lp441
F1442231794
aF29.368200000000002
aF123.75190000000001
aF33000
aF468
aF0
aa(lp442
F1442231802
aF29.387699999999999
aF123.75190000000001
aF33000
aF468
aF0
aa(lp443
F1442231805
aF29.389900000000001
aF123.75190000000001
aF33000
aF468
aF0
aa(lp444
F1442231809
aF29.400300000000001
aF123.752
aF33000
aF468
aF0
aa(lp445
F1442231814
aF29.4147
aF123.75190000000001
aF33000
aF468
aF0
aa(lp446
F1442231820
aF29.428999999999998
aF123.752
aF33000
aF468
aF0
aa(lp447
F1442231830
aF29.446300000000001
aF123.752
aF33000
aF468
aF0
aa(lp448
F1442231832
aF29.452000000000002
aF123.752
aF33000
aF468
aF0
aa(lp449
F1442231841
aF29.4741
aF123.7521
aF33000
aF468
aF0
aa(lp450
F1442231844
aF29.479700000000001
aF123.7521
aF33000
aF468
aF0
aa(lp451
F1442231850
aF29.4923
aF123.752
aF33000
aF468
aF0
aa(lp452
F1442231856
aF29.500900000000001
aF123.7521
aF33000
aF468
aF0
aa(lp453
F1442231865
aF29.520099999999999
aF123.7521
aF33000
aF469
aF0
aa(lp454
F1442231868
aF29.5318
aF123.7521
aF33000
aF469
aF0
aa(lp455
F1442231877
aF29.5518
aF123.752
aF32975
aF469
aF0
aa(lp456
F1442231886
aF29.571000000000002
aF123.752
aF32975
aF470
aF0
aa(lp457
F1442231889
aF29.5762
aF123.752
aF32975
aF470
aF0
aa(lp458
F1442231892
aF29.584
aF123.752
aF32975
aF470
aF0
aa(lp459
F1442231901
aF29.601900000000001
aF123.7521
aF33000
aF470
aF0
aa(lp460
F1442231905
aF29.610099999999999
aF123.7521
aF33000
aF469
aF0
aa(lp461
F1442231910
aF29.6218
aF123.7521
aF33000
aF469
aF0
aa(lp462
F1442231914
aF29.6279
aF123.7521
aF33000
aF468
aF0
aa(lp463
F1442231916
aF29.6374
aF123.7521
aF33000
aF467
aF0
aa(lp464
F1442231922
aF29.648299999999999
aF123.7522
aF33000
aF466
aF0
aa(lp465
F1442231931
aF29.666399999999999
aF123.7522
aF33000
aF465
aF0
aa(lp466
F1442231943
aF29.694800000000001
aF123.7522
aF33000
aF465
aF0
aa(lp467
F1442231949
aF29.703800000000001
aF123.7522
aF33000
aF465
aF0
aa(lp468
F1442231967
aF29.745999999999999
aF123.75230000000001
aF33000
aF465
aF0
aa(lp469
F1442231970
aF29.7486
aF123.75230000000001
aF33000
aF465
aF0
aa(lp470
F1442231973
aF29.7547
aF123.7522
aF33000
aF465
aF0
aa(lp471
F1442231976
aF29.7624
aF123.7522
aF33000
aF465
aF0
aa(lp472
F1442231986
aF29.7836
aF123.75230000000001
aF33000
aF466
aF0
aa(lp473
F1442232067
aF29.9603
aF123.75239999999999
aF33000
aF466
aF359
aa(lp474
F1442232071
aF29.964200000000002
aF123.75239999999999
aF33000
aF466
aF359
aa(lp475
F1442232082
aF29.993500000000001
aF123.75239999999999
aF33025
aF465
aF359
aa(lp476
F1442232103
aF30.039899999999999
aF123.7525
aF33450
aF462
aF359
aa(lp477
F1442232106
aF30.040800000000001
aF123.7525
aF33450
aF462
aF359
aa(lp478
F1442232112
aF30.055599999999998
aF123.75239999999999
aF33650
aF459
aF359
aa(lp479
F1442232118
aF30.067
aF123.75239999999999
aF33825
aF456
aF359
aa(lp480
F1442232139
aF30.110600000000002
aF123.7525
aF34250
aF452
aF359
aa(lp481
F1442232142
aF30.116499999999998
aF123.7525
aF34300
aF452
aF359
aa(lp482
F1442232166
aF30.1708
aF123.7526
aF34800
aF446
aF359
aa(lp483
F1442232169
aF30.177
aF123.7526
aF34825
aF446
aF359
aa(lp484
F1442232172
aF30.182300000000001
aF123.7526
aF34850
aF446
aF359
aa(lp485
F1442232179
aF30.191800000000001
aF123.7526
aF34925
aF446
aF359
aa(lp486
F1442232187
aF30.2133
aF123.7526
aF35025
aF446
aF359
aa(lp487
F1442232193
aF30.2241
aF123.7526
aF35025
aF447
aF359
aa(lp488
F1442232205
aF30.2532
aF123.7525
aF35000
aF450
aF359
aa(lp489
F1442232208
aF30.257400000000001
aF123.7525
aF35000
aF449
aF359
aa(lp490
F1442232214
aF30.265799999999999
aF123.7525
aF35000
aF450
aF359
aa(lp491
F1442232235
aF30.2241
aF123.7526
aF35000
aF453
aF179
aa(lp492
F1442232260
aF30.181999999999999
aF123.7358
aF35000
aF453
aF199
aa(lp493
F1442232272
aF30.165400000000002
aF123.72020000000001
aF35000
aF453
aF219
aa(lp494
F1442232284
aF30.154399999999999
aF123.6991
aF35000
aF453
aF239
aa(lp495
F1442232296
aF30.150300000000001
aF123.6748
aF35000
aF453
aF259
aa(lp496
F1442232308
aF30.153600000000001
aF123.6504
aF35000
aF453
aF279
aa(lp497
F1442232320
aF30.164000000000001
aF123.62869999999999
aF35000
aF453
aF299
aa(lp498
F1442232331
aF30.511900000000001
aF123.7529
aF35000
aF451
aF17
aa(lp499
F1442232350
aF30.5503
aF123.7529
aF35000
aF451
aF17
aa(lp500
F1442232371
aF30.598299999999998
aF123.753
aF35000
aF451
aF17
aa(lp501
F1442232383
aF30.6234
aF123.753
aF35000
aF451
aF17
aa(lp502
F1442232386
aF30.630400000000002
aF123.753
aF35000
aF451
aF17
aa(lp503
F1442232392
aF30.6434
aF123.753
aF35000
aF452
aF17
aa(lp504
F1442232407
aF30.6694
aF123.753
aF35000
aF453
aF17
aa(lp505
F1442232422
aF30.707799999999999
aF123.753
aF35000
aF455
aF359
aa(lp506
F1442232435
aF30.732099999999999
aF123.7522
aF35000
aF451
aF357
aa(lp507
F1442232437
aF30.738700000000001
aF123.7518
aF35000
aF450
aF357
aa(lp508
F1442232446
aF30.756900000000002
aF123.7503
aF35000
aF446
aF355
aa(lp509
F1442232449
aF30.761800000000001
aF123.7497
aF35000
aF445
aF354
aa(lp510
F1442232459
aF30.7822
aF123.7469
aF35000
aF441
aF352
aa(lp511
F1442232461
aF30.7882
aF123.74590000000001
aF35000
aF440
aF351
aa(lp512
F1442232464
aF30.7942
aF123.7449
aF35000
aF439
aF351
aa(lp513
F1442232473
aF30.811399999999999
aF123.7414
aF35000
aF437
aF349
aa(lp514
F1442232479
aF30.8216
aF123.739
aF35000
aF434
aF348
aa(lp515
F1442232485
aF30.835000000000001
aF123.73560000000001
aF35000
aF433
aF347
aa(lp516
F1442232491
aF30.847100000000001
aF123.7324
aF35000
aF432
aF347
aa(lp517
F1442232497
aF30.8569
aF123.7299
aF35000
aF432
aF347
aa(lp518
F1442232503
aF30.869
aF123.7266
aF35000
aF433
aF347
aa(lp519
F1442232506
aF30.873699999999999
aF123.72539999999999
aF35000
aF433
aF347
aa(lp520
F1442232512
aF30.8828
aF123.723
aF35000
aF433
aF347
aa(lp521
F1442232531
aF30.921199999999999
aF123.7128
aF35000
aF434
aF347
aa(lp522
F1442232556
aF30.963899999999999
aF123.7128
aF35000
aF434
aF0
aa(lp523
F1442232593
aF31.043500000000002
aF123.6803
aF35000
aF435
aF347
aa(lp524
F1442232599
aF31.053699999999999
aF123.6776
aF35000
aF435
aF347
aa(lp525
F1442232602
aF31.0639
aF123.67489999999999
aF35000
aF436
aF347
aa(lp526
F1442232606
aF31.067499999999999
aF123.6739
aF35000
aF436
aF347
aa(lp527
F1442232615
aF31.0883
aF123.66840000000001
aF35000
aF436
aF347
aa(lp528
F1442232617
aF31.093800000000002
aF123.6669
aF35000
aF436
aF347
aa(lp529
F1442232627
aF31.1128
aF123.6618
aF35000
aF436
aF347
aa(lp530
F1442232629
aF31.116700000000002
aF123.66079999999999
aF35000
aF436
aF347
aa(lp531
F1442232639
aF31.134799999999998
aF123.65600000000001
aF35000
aF437
aF347
aa(lp532
F1442232651
aF31.1569
aF123.65000000000001
aF35000
aF437
aF347
aa(lp533
F1442232653
aF31.166699999999999
aF123.64749999999999
aF35000
aF435
aF347
aa(lp534
F1442232662
aF31.183700000000002
aF123.6429
aF35000
aF435
aF347
aa(lp535
F1442232667
aF31.186800000000002
aF123.6421
aF35000
aF435
aF347
aa(lp536
F1442232668
aF31.195499999999999
aF123.63979999999999
aF35000
aF434
aF347
aa(lp537
F1442232674
aF31.206099999999999
aF123.6369
aF35000
aF434
aF347
aa(lp538
F1442232678
aF31.209599999999998
aF123.636
aF35000
aF435
aF346
aa(lp539
F1442232681
aF31.2195
aF123.63339999999999
aF35000
aF435
aF346
aa(lp540
F1442232687
aF31.229299999999999
aF123.63079999999999
aF35000
aF436
aF347
aa(lp541
F1442232693
aF31.239899999999999
aF123.6279
aF35000
aF436
aF347
aa(lp542
F1442232705
aF31.262
aF123.622
aF35000
aF435
aF347
aa(lp543
F1442232714
aF31.282399999999999
aF123.61660000000001
aF35000
aF435
aF347
aa(lp544
F1442232717
aF31.288699999999999
aF123.61490000000001
aF35000
aF435
aF347
aa(lp545
F1442232720
aF31.294599999999999
aF123.6133
aF35000
aF435
aF347
aa(lp546
F1442232724
aF31.2974
aF123.6126
aF35000
aF436
aF347
aa(lp547
F1442232729
aF31.311199999999999
aF123.60890000000001
aF35000
aF436
aF347
aa(lp548
F1442232735
aF31.326499999999999
aF123.6048
aF35000
aF436
aF347
aa(lp549
F1442232741
aF31.337199999999999
aF123.602
aF35000
aF436
aF347
aa(lp550
F1442232747
aF31.3489
aF123.5988
aF35000
aF436
aF347
aa(lp551
F1442232751
aF31.352499999999999
aF123.59780000000001
aF35000
aF436
aF347
aa(lp552
F1442232759
aF31.374199999999998
aF123.59220000000001
aF35000
aF436
aF347
aa(lp553
F1442232762
aF31.3781
aF123.5912
aF35000
aF436
aF347
aa(lp554
F1442232765
aF31.384399999999999
aF123.5895
aF35000
aF437
aF347
aa(lp555
F1442232771
aF31.3963
aF123.5865
aF35000
aF437
aF347
aa(lp556
F1442232777
aF31.404599999999999
aF123.5844
aF35000
aF437
aF347
aa(lp557
F1442232783
aF31.4224
aF123.57989999999999
aF35000
aF437
aF347
aa(lp558
F1442232789
aF31.4315
aF123.5776
aF35000
aF437
aF347
aa(lp559
F1442232801
aF31.452100000000002
aF123.5723
aF35000
aF436
aF347
aa(lp560
F1442232807
aF31.469899999999999
aF123.5681
aF35000
aF437
aF348
aa(lp561
F1442232810
aF31.473500000000001
aF123.5673
aF35000
aF437
aF349
aa(lp562
F1442232819
aF31.492799999999999
aF123.56359999999999
aF35000
aF440
aF351
aa(lp563
F1442232825
aF31.503399999999999
aF123.56189999999999
aF35000
aF441
aF352
aa(lp564
F1442232831
aF31.5136
aF123.5605
aF35000
aF442
aF352
aa(lp565
F1442232837
aF31.529599999999999
aF123.55880000000001
aF35000
aF444
aF353
aa(lp566
F1442232840
aF31.536200000000001
aF123.5582
aF35000
aF446
aF355
aa(lp567
F1442232846
aF31.549099999999999
aF123.5573
aF35000
aF447
aF356
aa(lp568
F1442232855
aF31.5641
aF123.55670000000001
aF35000
aF450
aF357
aa(lp569
F1442232864
aF31.5825
aF123.5562
aF35000
aF451
aF358
aa(lp570
F1442232868
aF31.590800000000002
aF123.556
aF35000
aF451
aF358
aa(lp571
F1442232873
aF31.604199999999999
aF123.55549999999999
aF35000
aF451
aF358
aa(lp572
F1442232879
aF31.6188
aF123.5551
aF35000
aF451
aF358
aa(lp573
F1442232883
aF31.622499999999999
aF123.55500000000001
aF35000
aF451
aF358
aa(lp574
F1442232891
aF31.641300000000001
aF123.5544
aF35000
aF451
aF358
aa(lp575
F1442232894
aF31.647200000000002
aF123.55419999999999
aF35000
aF451
aF358
aa(lp576
F1442232897
aF31.655899999999999
aF123.554
aF35000
aF451
aF358
aa(lp577
F1442232903
aF31.665099999999999
aF123.55370000000001
aF35000
aF451
aF358
aa(lp578
F1442232909
aF31.6797
aF123.55329999999999
aF35000
aF450
aF358
aa(lp579
F1442232915
aF31.692599999999999
aF123.55289999999999
aF35000
aF450
aF358
aa(lp580
F1442232918
aF31.699300000000001
aF123.5527
aF35000
aF450
aF358
aa(lp581
F1442232921
aF31.703499999999998
aF123.55249999999999
aF35000
aF450
aF358
aa(lp582
F1442232930
aF31.722300000000001
aF123.55200000000001
aF35000
aF451
aF358
aa(lp583
F1442232933
aF31.727699999999999
aF123.5518
aF35000
aF451
aF358
aa(lp584
F1442232939
aF31.7407
aF123.5514
aF35000
aF452
aF358
aa(lp585
F1442232945
aF31.7562
aF123.5509
aF35050
aF454
aF358
aa(lp586
F1442232955
aF31.773399999999999
aF123.5504
aF35150
aF454
aF358
aa(lp587
F1442232958
aF31.780200000000001
aF123.5502
aF35175
aF454
aF358
aa(lp588
F1442232961
aF31.785699999999999
aF123.5501
aF35225
aF455
aF358
aa(lp589
F1442232970
aF31.805499999999999
aF123.5497
aF35325
aF456
aF359
aa(lp590
F1442232982
aF31.8293
aF123.5497
aF35375
aF460
aF359
aa(lp591
F1442232985
aF31.834
aF123.5497
aF35375
aF460
aF359
aa(lp592
F1442233009
aF31.888000000000002
aF123.5498
aF35575
aF464
aF359
aa(lp593
F1442233012
aF31.892700000000001
aF123.5498
aF35600
aF464
aF359
aa(lp594
F1442233027
aF31.927900000000001
aF123.5498
aF35875
aF463
aF359
aa(lp595
F1442233030
aF31.935199999999998
aF123.5498
aF35925
aF463
aF359
aa(lp596
F1442233033
aF31.936399999999999
aF123.5498
aF35925
aF463
aF359
aa(lp597
F1442233039
aF31.954499999999999
aF123.5498
aF36025
aF463
aF359
aa(lp598
F1442233042
aF31.9605
aF123.5498
aF36050
aF463
aF359
aa(lp599
F1442233051
aF31.979299999999999
aF123.5497
aF36075
aF464
aF359
aa(lp600
F1442233054
aF31.9819
aF123.5497
aF36075
aF464
aF359
aa(lp601
F1442233057
aF31.993099999999998
aF123.5497
aF36100
aF464
aF359
aa(lp602
F1442233063
aF32.000799999999998
aF123.5497
aF36100
aF464
aF359
aa(lp603
F1442233066
aF32.011000000000003
aF123.5497
aF36100
aF461
aF359
aa(lp604
F1442233075
aF32.031100000000002
aF123.5497
aF36125
aF460
aF359
aa(lp605
F1442233078
aF32.0366
aF123.5496
aF36125
aF460
aF359
aa(lp606
F1442233087
aF32.057400000000001
aF123.5496
aF36100
aF459
aF359
aa(lp607
F1442233090
aF32.064999999999998
aF123.5496
aF36125
aF458
aF359
aa(lp608
F1442233099
aF32.078200000000002
aF123.54949999999999
aF36100
aF459
aF359
aa(lp609
F1442233102
aF32.0871
aF123.54940000000001
aF36100
aF459
aF359
aa(lp610
F1442233105
aF32.095999999999997
aF123.54940000000001
aF36100
aF459
aF359
aa(lp611
F1442233114
aF32.1143
aF123.5493
aF36100
aF460
aF359
aa(lp612
F1442233123
aF32.131
aF123.5493
aF36075
aF460
aF359
aa(lp613
F1442233135
aF32.158999999999999
aF123.5493
aF36100
aF457
aF359
aa(lp614
F1442233139
aF32.167400000000001
aF123.5492
aF36125
aF457
aF359
aa(lp615
F1442233151
aF32.1907
aF123.5492
aF36100
aF457
aF359
aa(lp616
F1442233162
aF32.214399999999998
aF123.5491
aF36100
aF458
aF359
aa(lp617
F1442233166
aF32.224200000000003
aF123.54900000000001
aF36100
aF458
aF359
aa(lp618
F1442233171
aF32.233499999999999
aF123.54900000000001
aF36100
aF459
aF359
aa(lp619
F1442233178
aF32.248899999999999
aF123.54900000000001
aF36100
aF460
aF359
aa(lp620
F1442233183
aF32.259500000000003
aF123.5489
aF36100
aF461
aF359
aa(lp621
F1442233189
aF32.275700000000001
aF123.5489
aF36100
aF461
aF359
aa(lp622
F1442233195
aF32.287300000000002
aF123.5489
aF36100
aF461
aF359
aa(lp623
F1442233201
aF32.298000000000002
aF123.5488
aF36100
aF461
aF359
aa(lp624
F1442233207
aF32.3142
aF123.5488
aF36100
aF462
aF359
aa(lp625
F1442233210
aF32.317599999999999
aF123.5488
aF36100
aF462
aF359
aa(lp626
F1442233219
aF32.338999999999999
aF123.5487
aF36100
aF461
aF359
aa(lp627
F1442233223
aF32.344099999999997
aF123.5487
aF36100
aF461
aF359
aa(lp628
F1442233231
aF32.362900000000003
aF123.5487
aF36100
aF461
aF359
aa(lp629
F1442233242
aF32.383400000000002
aF123.54859999999999
aF36100
aF461
aF359
aa(lp630
F1442233246
aF32.395800000000001
aF123.54859999999999
aF36100
aF461
aF359
aa(lp631
F1442233249
aF32.402999999999999
aF123.5485
aF36100
aF461
aF359
aa(lp632
F1442233259
aF32.423099999999998
aF123.5484
aF36100
aF461
aF359
aa(lp633
F1442233264
aF32.431600000000003
aF123.5484
aF36100
aF461
aF359
aa(lp634
F1442233268
aF32.435899999999997
aF123.5484
aF36100
aF461
aF359
aa(lp635
F1442233279
aF32.466200000000001
aF123.5483
aF36100
aF462
aF359
aa(lp636
F1442233283
aF32.4739
aF123.5483
aF36100
aF462
aF359
aa(lp637
F1442233291
aF32.490200000000002
aF123.54819999999999
aF36100
aF463
aF359
aa(lp638
F1442233297
aF32.504800000000003
aF123.54819999999999
aF36100
aF463
aF359
aa(lp639
F1442233303
aF32.514600000000002
aF123.54819999999999
aF36100
aF462
aF359
aa(lp640
F1442233309
aF32.533499999999997
aF123.54819999999999
aF36100
aF462
aF359
aa(lp641
F1442233312
aF32.536000000000001
aF123.54819999999999
aF36100
aF462
aF359
aa(lp642
F1442233337
aF32.588799999999999
aF123.548
aF36100
aF460
aF359
aa(lp643
F1442233343
aF32.5961
aF123.548
aF36100
aF460
aF359
aa(lp644
F1442233358
aF32.6327
aF123.5479
aF36100
aF459
aF359
aa(lp645
F1442233367
aF32.648400000000002
aF123.5479
aF36100
aF459
aF359
aa(lp646
F1442233377
aF32.673900000000003
aF123.5478
aF36100
aF459
aF359
aa(lp647
F1442233391
aF32.698599999999999
aF123.54770000000001
aF36100
aF459
aF359
aa(lp648
F1442233416
aF32.743699999999997
aF123.54770000000001
aF36100
aF459
aF0
aa(lp649
F1442233520
aF32.976100000000002
aF123.54689999999999
aF36100
aF461
aF359
aa(lp650
F1442233529
aF32.996200000000002
aF123.5468
aF36100
aF461
aF359
aa(lp651
F1442233535
aF33.011499999999998
aF123.5468
aF36100
aF461
aF359
aa(lp652
F1442233541
aF33.0227
aF123.5468
aF36100
aF461
aF359
aa(lp653
F1442233568
aF33.071599999999997
aF123.5468
aF36100
aF461
aF0
aa(lp654
F1442233611
aF33.171700000000001
aF123.54640000000001
aF36100
aF462
aF359
aa(lp655
F1442233613
aF33.178600000000003
aF123.5463
aF36100
aF462
aF359
aa(lp656
F1442233619
aF33.191400000000002
aF123.5463
aF36100
aF462
aF359
aa(lp657
F1442233625
aF33.200400000000002
aF123.5462
aF36100
aF462
aF359
aa(lp658
F1442233628
aF33.206800000000001
aF123.5462
aF36100
aF462
aF359
aa(lp659
F1442233634
aF33.223999999999997
aF123.5462
aF36100
aF462
aF359
aa(lp660
F1442233643
aF33.240699999999997
aF123.5462
aF36100
aF463
aF359
aa(lp661
F1442233668
aF33.286200000000001
aF123.5462
aF36100
aF463
aF0
aa(lp662
F1442233679
aF33.249299999999998
aF123.5462
aF36100
aF461
aF359
aa(lp663
F1442233705
aF33.296399999999998
aF123.5462
aF36100
aF461
aF0
aa(lp664
F1442233896
aF33.781700000000001
aF123.5445
aF36100
aF463
aF359
aa(lp665
F1442233899
aF33.789000000000001
aF123.5445
aF36100
aF463
aF359
aa(lp666
F1442233911
aF33.8108
aF123.5444
aF36100
aF463
aF359
aa(lp667
F1442233917
aF33.8245
aF123.54430000000001
aF36100
aF463
aF359
aa(lp668
F1442233923
aF33.840800000000002
aF123.54430000000001
aF36100
aF463
aF359
aa(lp669
F1442233926
aF33.848100000000002
aF123.54430000000001
aF36100
aF463
aF359
aa(lp670
F1442233932
aF33.861899999999999
aF123.5442
aF36100
aF463
aF359
aa(lp671
F1442233935
aF33.868699999999997
aF123.5442
aF36100
aF463
aF359
aa(lp672
F1442233942
aF33.879899999999999
aF123.5442
aF36100
aF463
aF359
aa(lp673
F1442233948
aF33.893999999999998
aF123.5442
aF36100
aF463
aF359
aa(lp674
F1442233952
aF33.9009
aF123.5442
aF36100
aF464
aF359
aa(lp675
F1442233960
aF33.918900000000001
aF123.5441
aF36100
aF464
aF359
aa(lp676
F1442233963
aF33.926200000000001
aF123.5441
aF36100
aF464
aF359
aa(lp677
F1442233969
aF33.937800000000003
aF123.5441
aF36100
aF464
aF359
aa(lp678
F1442233976
aF33.954500000000003
aF123.544
aF36100
aF464
aF359
aa(lp679
F1442233978
aF33.961399999999998
aF123.54389999999999
aF36100
aF464
aF359
aa(lp680
F1442233988
aF33.979500000000002
aF123.54389999999999
aF36100
aF464
aF359
aa(lp681
F1442233997
aF33.999200000000002
aF123.54389999999999
aF36100
aF464
aF359
aa(lp682
F1442234000
aF34.006900000000002
aF123.54389999999999
aF36100
aF464
aF359
aa(lp683
F1442234013
aF34.032699999999998
aF123.5438
aF36100
aF463
aF359
aa(lp684
F1442234015
aF34.036999999999999
aF123.5438
aF36100
aF463
aF359
aa(lp685
F1442234018
aF34.045999999999999
aF123.5438
aF36100
aF463
aF359
aa(lp686
F1442234028
aF34.067
aF123.5437
aF36100
aF463
aF359
aa(lp687
F1442234031
aF34.073900000000002
aF123.5437
aF36100
aF463
aF359
aa(lp688
F1442234034
aF34.0777
aF123.5436
aF36100
aF463
aF359
aa(lp689
F1442234040
aF34.090899999999998
aF123.5433
aF36100
aF461
aF358
aa(lp690
F1442234049
aF34.112200000000001
aF123.542
aF36100
aF457
aF356
aa(lp691
F1442234056
aF34.124499999999998
aF123.541
aF36100
aF457
aF355
aa(lp692
F1442234059
aF34.1312
aF123.54040000000001
aF36100
aF457
aF355
aa(lp693
F1442234065
aF34.1434
aF123.5394
aF36100
aF457
aF355
aa(lp694
F1442234068
aF34.149299999999997
aF123.5389
aF36100
aF457
aF355
aa(lp695
F1442234075
aF34.163200000000003
aF123.5377
aF36100
aF457
aF355
aa(lp696
F1442234080
aF34.176400000000001
aF123.53660000000001
aF36100
aF457
aF355
aa(lp697
F1442234089
aF34.194099999999999
aF123.5351
aF36100
aF457
aF355
aa(lp698
F1442234092
aF34.201599999999999
aF123.53449999999999
aF36100
aF457
aF355
aa(lp699
F1442234101
aF34.2211
aF123.5329
aF36100
aF456
aF355
aa(lp700
F1442234104
aF34.225700000000003
aF123.5325
aF36100
aF456
aF355
aa(lp701
F1442234108
aF34.231999999999999
aF123.53189999999999
aF36125
aF456
aF355
aa(lp702
F1442234116
aF34.252200000000002
aF123.53019999999999
aF36100
aF456
aF355
aa(lp703
F1442234120
aF34.259399999999999
aF123.5296
aF36100
aF456
aF355
aa(lp704
F1442234123
aF34.261099999999999
aF123.5295
aF36100
aF456
aF355
aa(lp705
F1442234150
aF34.3095
aF123.5295
aF36100
aF456
aF0
aa(lp706
F1442234224
aF34.476900000000001
aF123.5112
aF36100
aF458
aF355
aa(lp707
F1442234231
aF34.494599999999998
aF123.5097
aF36100
aF458
aF355
aa(lp708
F1442234237
aF34.508600000000001
aF123.5085
aF36100
aF458
aF355
aa(lp709
F1442234262
aF34.553600000000003
aF123.5085
aF36100
aF458
aF0
aa(lp710
F1442234524
aF35.119900000000001
aF123.46299999999999
aF36100
aF464
aF358
aa(lp711
F1442234527
aF35.127699999999997
aF123.4628
aF36100
aF464
aF358
aa(lp712
F1442234536
aF35.145299999999999
aF123.4623
aF36100
aF464
aF358
aa(lp713
F1442234540
aF35.1526
aF123.46210000000001
aF36100
aF464
aF358
aa(lp714
F1442234548
aF35.172800000000002
aF123.4616
aF36100
aF464
aF358
aa(lp715
F1442234551
aF35.178800000000003
aF123.4614
aF36100
aF464
aF358
aa(lp716
F1442234557
aF35.191299999999998
aF123.4611
aF36100
aF464
aF358
aa(lp717
F1442234563
aF35.2029
aF123.46080000000001
aF36100
aF464
aF358
aa(lp718
F1442234566
aF35.206699999999998
aF123.4607
aF36100
aF464
aF358
aa(lp719
F1442234579
aF35.2376
aF123.4598
aF36100
aF464
aF358
aa(lp720
F1442234585
aF35.250100000000003
aF123.45950000000001
aF36100
aF463
aF358
aa(lp721
F1442234588
aF35.256900000000002
aF123.4593
aF36100
aF463
aF358
aa(lp722
F1442234592
aF35.262099999999997
aF123.4592
aF36100
aF463
aF358
aa(lp723
F1442234600
aF35.283499999999997
aF123.4586
aF36100
aF463
aF358
aa(lp724
F1442234603
aF35.284799999999997
aF123.4586
aF36100
aF463
aF358
aa(lp725
F1442234609
aF35.300699999999999
aF123.45820000000001
aF36100
aF463
aF358
aa(lp726
F1442234621
aF35.3277
aF123.4575
aF36100
aF463
aF358
aa(lp727
F1442234624
aF35.3354
aF123.4573
aF36100
aF463
aF358
aa(lp728
F1442234633
aF35.3521
aF123.4568
aF36100
aF463
aF358
aa(lp729
F1442234636
aF35.360300000000002
aF123.45659999999999
aF36100
aF464
aF358
aa(lp730
F1442234639
aF35.366300000000003
aF123.4564
aF36100
aF464
aF358
aa(lp731
F1442234645
aF35.379100000000001
aF123.45610000000001
aF36100
aF463
aF358
aa(lp732
F1442234648
aF35.386899999999997
aF123.4558
aF36100
aF463
aF358
aa(lp733
F1442234651
aF35.392400000000002
aF123.45569999999999
aF36100
aF463
aF358
aa(lp734
F1442234660
aF35.4099
aF123.4552
aF36100
aF462
aF358
aa(lp735
F1442234669
aF35.432200000000002
aF123.4546
aF36100
aF462
aF358
aa(lp736
F1442234673
aF35.438600000000001
aF123.45440000000001
aF36100
aF461
aF358
aa(lp737
F1442234678
aF35.4527
aF123.4541
aF36100
aF461
aF358
aa(lp738
F1442234684
aF35.462899999999998
aF123.4538
aF36100
aF461
aF358
aa(lp739
F1442234690
aF35.475299999999997
aF123.45350000000001
aF36100
aF462
aF358
aa(lp740
F1442234696
aF35.4895
aF123.45310000000001
aF36100
aF462
aF358
aa(lp741
F1442234700
aF35.497199999999999
aF123.4529
aF36100
aF462
aF358
aa(lp742
F1442234708
aF35.515500000000003
aF123.4524
aF36100
aF462
aF358
aa(lp743
F1442234721
aF35.542099999999998
aF123.4517
aF36100
aF463
aF358
aa(lp744
F1442234724
aF35.548999999999999
aF123.4516
aF36100
aF463
aF358
aa(lp745
F1442234733
aF35.567
aF123.4511
aF36100
aF463
aF358
aa(lp746
F1442234739
aF35.579799999999999
aF123.4508
aF36100
aF462
aF358
aa(lp747
F1442234745
aF35.594299999999997
aF123.4504
aF36100
aF461
aF358
aa(lp748
F1442234751
aF35.607599999999998
aF123.45010000000001
aF36100
aF460
aF358
aa(lp749
F1442234757
aF35.618600000000001
aF123.4499
aF36100
aF460
aF358
aa(lp750
F1442234763
aF35.631799999999998
aF123.4495
aF36100
aF460
aF358
aa(lp751
F1442234772
aF35.651400000000002
aF123.449
aF36100
aF460
aF358
aa(lp752
F1442234775
aF35.6586
aF123.44889999999999
aF36100
aF460
aF358
aa(lp753
F1442234784
aF35.677399999999999
aF123.4483
aF36100
aF460
aF358
aa(lp754
F1442234788
aF35.683700000000002
aF123.4482
aF36100
aF460
aF358
aa(lp755
F1442234790
aF35.690600000000003
aF123.44799999999999
aF36100
aF460
aF358
aa(lp756
F1442234801
aF35.710099999999997
aF123.44750000000001
aF36100
aF460
aF358
aa(lp757
F1442234806
aF35.722000000000001
aF123.4472
aF36100
aF460
aF358
aa(lp758
F1442234817
aF35.747199999999999
aF123.4464
aF36100
aF461
aF358
aa(lp759
F1442234821
aF35.754899999999999
aF123.4462
aF36100
aF461
aF358
aa(lp760
F1442234826
aF35.764299999999999
aF123.446
aF36100
aF461
aF358
aa(lp761
F1442234833
aF35.779200000000003
aF123.4456
aF36100
aF461
aF358
aa(lp762
F1442234839
aF35.793300000000002
aF123.4453
aF36100
aF462
aF358
aa(lp763
F1442234845
aF35.805300000000003
aF123.44499999999999
aF36100
aF462
aF358
aa(lp764
F1442234848
aF35.815199999999997
aF123.4447
aF36100
aF463
aF358
aa(lp765
F1442234857
aF35.832700000000003
aF123.4442
aF36100
aF464
aF358
aa(lp766
F1442234860
aF35.839599999999997
aF123.444
aF36100
aF464
aF358
aa(lp767
F1442234869
aF35.859400000000001
aF123.4435
aF36100
aF464
aF358
aa(lp768
F1442234872
aF35.865000000000002
aF123.4434
aF36100
aF465
aF358
aa(lp769
F1442234878
aF35.875700000000002
aF123.4431
aF36100
aF465
aF358
aa(lp770
F1442234882
aF35.884300000000003
aF123.44280000000001
aF36100
aF465
aF358
aa(lp771
F1442234887
aF35.898099999999999
aF123.44240000000001
aF36100
aF465
aF358
aa(lp772
F1442234896
aF35.918300000000002
aF123.4419
aF36100
aF464
aF358
aa(lp773
F1442234899
aF35.923000000000002
aF123.4418
aF36100
aF464
aF358
aa(lp774
F1442234908
aF35.943199999999997
aF123.44119999999999
aF36100
aF464
aF358
aa(lp775
F1442234912
aF35.949599999999997
aF123.44110000000001
aF36100
aF465
aF358
aa(lp776
F1442234914
aF35.956899999999997
aF123.4409
aF36100
aF465
aF358
aa(lp777
F1442234929
aF35.988799999999998
aF123.44
aF36100
aF465
aF358
aa(lp778
F1442234939
aF36.008600000000001
aF123.4395
aF36100
aF465
aF358
aa(lp779
F1442234948
aF36.026699999999998
aF123.43899999999999
aF36100
aF466
aF358
aa(lp780
F1442234951
aF36.032699999999998
aF123.4389
aF36100
aF466
aF358
aa(lp781
F1442234957
aF36.046900000000001
aF123.4385
aF36100
aF466
aF358
aa(lp782
F1442234960
aF36.052999999999997
aF123.4383
aF36100
aF466
aF358
aa(lp783
F1442234963
aF36.061199999999999
aF123.43810000000001
aF36100
aF466
aF358
aa(lp784
F1442234972
aF36.078400000000002
aF123.4376
aF36100
aF466
aF358
aa(lp785
F1442234975
aF36.086199999999998
aF123.4374
aF36100
aF466
aF358
aa(lp786
F1442234981
aF36.100000000000001
aF123.4371
aF36100
aF466
aF358
aa(lp787
F1442234987
aF36.113799999999998
aF123.4367
aF36125
aF466
aF358
aa(lp788
F1442234996
aF36.131900000000002
aF123.4362
aF36100
aF466
aF358
aa(lp789
F1442234999
aF36.136200000000002
aF123.4361
aF36100
aF466
aF358
aa(lp790
F1442235005
aF36.151800000000001
aF123.4357
aF36100
aF466
aF358
aa(lp791
F1442235008
aF36.158200000000001
aF123.4355
aF36100
aF466
aF358
aa(lp792
F1442235014
aF36.172899999999998
aF123.43510000000001
aF36100
aF466
aF358
aa(lp793
F1442235023
aF36.190199999999997
aF123.43470000000001
aF36100
aF467
aF358
aa(lp794
F1442235029
aF36.201799999999999
aF123.4344
aF36100
aF467
aF358
aa(lp795
F1442235035
aF36.217399999999998
aF123.434
aF36100
aF467
aF358
aa(lp796
F1442235049
aF36.2425
aF123.4333
aF36100
aF467
aF358
aa(lp797
F1442235054
aF36.2515
aF123.4331
aF36100
aF466
aF358
aa(lp798
F1442235060
aF36.270499999999998
aF123.43259999999999
aF36100
aF466
aF358
aa(lp799
F1442235066
aF36.280900000000003
aF123.4323
aF36100
aF466
aF358
aa(lp800
F1442235070
aF36.289099999999998
aF123.43210000000001
aF36100
aF466
aF358
aa(lp801
F1442235078
aF36.308900000000001
aF123.4316
aF36100
aF466
aF358
aa(lp802
F1442235081
aF36.314500000000002
aF123.4314
aF36100
aF466
aF358
aa(lp803
F1442235088
aF36.329999999999998
aF123.431
aF36100
aF466
aF358
aa(lp804
F1442235093
aF36.334800000000001
aF123.43089999999999
aF36100
aF466
aF358
aa(lp805
F1442235099
aF36.352499999999999
aF123.43040000000001
aF36100
aF467
aF358
aa(lp806
F1442235105
aF36.367100000000001
aF123.43000000000001
aF36100
aF467
aF358
aa(lp807
F1442235108
aF36.374899999999997
aF123.4298
aF36100
aF467
aF358
aa(lp808
F1442235117
aF36.392600000000002
aF123.42919999999999
aF36100
aF467
aF358
aa(lp809
F1442235126
aF36.414299999999997
aF123.4286
aF36100
aF468
aF358
aa(lp810
F1442235135
aF36.434199999999997
aF123.4281
aF36100
aF468
aF358
aa(lp811
F1442235141
aF36.445500000000003
aF123.4278
aF36100
aF469
aF358
aa(lp812
F1442235145
aF36.452500000000001
aF123.4276
aF36100
aF468
aF358
aa(lp813
F1442235157
aF36.479700000000001
aF123.4269
aF36100
aF468
aF358
aa(lp814
F1442235161
aF36.486699999999999
aF123.4267
aF36100
aF468
aF358
aa(lp815
F1442235166
aF36.497500000000002
aF123.4264
aF36100
aF468
aF358
aa(lp816
F1442235172
aF36.511800000000001
aF123.42610000000001
aF36100
aF468
aF358
aa(lp817
F1442235178
aF36.525199999999998
aF123.42570000000001
aF36100
aF469
aF358
aa(lp818
F1442235182
aF36.532200000000003
aF123.4255
aF36100
aF469
aF358
aa(lp819
F1442235193
aF36.558199999999999
aF123.4248
aF36100
aF470
aF358
aa(lp820
F1442235196
aF36.564300000000003
aF123.4246
aF36100
aF470
aF358
aa(lp821
F1442235202
aF36.5792
aF123.4242
aF36100
aF470
aF358
aa(lp822
F1442235205
aF36.583500000000001
aF123.4241
aF36100
aF470
aF358
aa(lp823
F1442235208
aF36.591299999999997
aF123.4239
aF36100
aF470
aF358
aa(lp824
F1442235217
aF36.610900000000001
aF123.4233
aF35975
aF470
aF358
aa(lp825
F1442235223
aF36.623100000000001
aF123.42319999999999
aF35900
aF470
aF359
aa(lp826
F1442235244
aF36.669699999999999
aF123.4277
aF35600
aF473
aF8
aa(lp827
F1442235250
aF36.682699999999997
aF123.4306
aF35525
aF475
aF10
aa(lp828
F1442235257
aF36.695599999999999
aF123.4341
aF35425
aF476
aF13
aa(lp829
F1442235266
aF36.715299999999999
aF123.4404
aF35275
aF477
aF14
aa(lp830
F1442235272
aF36.729399999999998
aF123.4451
aF35175
aF477
aF14
aa(lp831
F1442235281
aF36.746499999999997
aF123.4507
aF35050
aF478
aF14
aa(lp832
F1442235288
aF36.759799999999998
aF123.45489999999999
aF34950
aF478
aF14
aa(lp833
F1442235295
aF36.773099999999999
aF123.45869999999999
aF34850
aF477
aF12
aa(lp834
F1442235302
aF36.7943
aF123.464
aF34700
aF477
aF10
aa(lp835
F1442235306
aF36.799500000000002
aF123.4652
aF34650
aF476
aF10
aa(lp836
F1442235314
aF36.815600000000003
aF123.4684
aF34525
aF475
aF8
aa(lp837
F1442235320
aF36.831699999999998
aF123.4712
aF34425
aF475
aF7
aa(lp838
F1442235323
aF36.841299999999997
aF123.4726
aF34350
aF475
aF6
aa(lp839
F1442235333
aF36.857399999999998
aF123.47450000000001
aF34225
aF473
aF4
aa(lp840
F1442235336
aF36.866199999999999
aF123.4753
aF34150
aF473
aF4
aa(lp841
F1442235339
aF36.8688
aF123.4756
aF34150
aF473
aF4
aa(lp842
F1442235348
aF36.890999999999998
aF123.4769
aF33975
aF472
aF2
aa(lp843
F1442235357
aF36.912399999999998
aF123.4773
aF33825
aF472
aF1
aa(lp844
F1442235378
aF36.955599999999997
aF123.47620000000001
aF33500
aF472
aF358
aa(lp845
F1442235385
aF36.973999999999997
aF123.47580000000001
aF33350
aF472
aF358
aa(lp846
F1442235390
aF36.978299999999997
aF123.4756
aF33325
aF472
aF358
aa(lp847
F1442235394
aF36.991399999999999
aF123.4753
aF33225
aF473
aF358
aa(lp848
F1442235401
aF37.007599999999996
aF123.47490000000001
aF33075
aF473
aF358
aa(lp849
F1442235414
aF37.034799999999997
aF123.47410000000001
aF32900
aF473
aF358
aa(lp850
F1442235416
aF37.041800000000002
aF123.474
aF32850
aF473
aF358
aa(lp851
F1442235425
aF37.055799999999998
aF123.4736
aF32750
aF474
aF358
aa(lp852
F1442235430
aF37.072099999999999
aF123.4731
aF32625
aF474
aF358
aa(lp853
F1442235436
aF37.084800000000001
aF123.47280000000001
aF32525
aF474
aF358
aa(lp854
F1442235442
aF37.099200000000003
aF123.47239999999999
aF32425
aF473
aF358
aa(lp855
F1442235448
aF37.111499999999999
aF123.4721
aF32350
aF473
aF358
aa(lp856
F1442235454
aF37.1233
aF123.4718
aF32225
aF472
aF358
aa(lp857
F1442235457
aF37.125
aF123.4718
aF32225
aF472
aF358
aa(lp858
F1442235470
aF37.160400000000003
aF123.4708
aF32000
aF471
aF358
aa(lp859
F1442235476
aF37.174799999999998
aF123.4704
aF31875
aF472
aF358
aa(lp860
F1442235480
aF37.180900000000001
aF123.47020000000001
aF31825
aF472
aF358
aa(lp861
F1442235489
aF37.200600000000001
aF123.4696
aF31700
aF473
aF358
aa(lp862
F1442235498
aF37.218600000000002
aF123.4691
aF31550
aF474
aF358
aa(lp863
F1442235501
aF37.227800000000002
aF123.4688
aF31475
aF474
aF358
aa(lp864
F1442235505
aF37.232599999999998
aF123.4687
aF31425
aF474
aF358
aa(lp865
F1442235514
aF37.255499999999998
aF123.468
aF31275
aF476
aF358
aa(lp866
F1442235516
aF37.258600000000001
aF123.468
aF31250
aF476
aF358
aa(lp867
F1442235520
aF37.2669
aF123.4678
aF31175
aF476
aF358
aa(lp868
F1442235525
aF37.281500000000001
aF123.4674
aF31050
aF476
aF358
aa(lp869
F1442235538
aF37.307899999999997
aF123.4667
aF30875
aF475
aF358
aa(lp870
F1442235542
aF37.314900000000002
aF123.4665
aF30825
aF475
aF358
aa(lp871
F1442235550
aF37.334600000000002
aF123.4659
aF30675
aF473
aF358
aa(lp872
F1442235553
aF37.341200000000001
aF123.4657
aF30625
aF473
aF358
aa(lp873
F1442235556
aF37.348199999999999
aF123.46550000000001
aF30575
aF472
aF358
aa(lp874
F1442235565
aF37.366100000000003
aF123.465
aF30475
aF471
aF358
aa(lp875
F1442235568
aF37.3765
aF123.4646
aF30400
aF471
aF358
aa(lp876
F1442235574
aF37.387500000000003
aF123.46429999999999
aF30300
aF471
aF358
aa(lp877
F1442235580
aF37.401400000000002
aF123.4639
aF30200
aF470
aF358
aa(lp878
F1442235589
aF37.422199999999997
aF123.46339999999999
aF30050
aF469
aF358
aa(lp879
F1442235592
aF37.428699999999999
aF123.4633
aF30000
aF468
aF358
aa(lp880
F1442235601
aF37.444699999999997
aF123.4628
aF29875
aF467
aF358
aa(lp881
F1442235605
aF37.4542
aF123.46259999999999
aF29825
aF466
aF358
aa(lp882
F1442235614
aF37.472799999999999
aF123.462
aF29700
aF466
aF358
aa(lp883
F1442235618
aF37.479700000000001
aF123.4618
aF29625
aF466
aF358
aa(lp884
F1442235626
aF37.5
aF123.46129999999999
aF29475
aF467
aF358
aa(lp885
F1442235629
aF37.506399999999999
aF123.4611
aF29425
aF467
aF358
aa(lp886
F1442235633
aF37.513800000000003
aF123.46080000000001
aF29375
aF468
aF358
aa(lp887
F1442235641
aF37.531999999999996
aF123.45999999999999
aF29225
aF470
aF358
aa(lp888
F1442235644
aF37.535899999999998
aF123.45959999999999
aF29200
aF471
aF356
aa(lp889
F1442235654
aF37.559600000000003
aF123.45569999999999
aF29000
aF471
aF351
aa(lp890
F1442235657
aF37.567999999999998
aF123.45350000000001
aF28925
aF470
aF348
aa(lp891
F1442235661
aF37.574300000000001
aF123.4516
aF28900
aF468
aF347
aa(lp892
F1442235666
aF37.584200000000003
aF123.4481
aF28800
aF466
aF344
aa(lp893
F1442235670
aF37.590299999999999
aF123.4455
aF28750
aF466
aF342
aa(lp894
F1442235676
aF37.603499999999997
aF123.4391
aF28650
aF463
aF337
aa(lp895
F1442235681
aF37.615400000000001
aF123.43210000000001
aF28575
aF461
aF334
aa(lp896
F1442235684
aF37.621400000000001
aF123.428
aF28525
aF459
aF332
aa(lp897
F1442235690
aF37.6312
aF123.4207
aF28425
aF458
aF329
aa(lp898
F1442235693
aF37.636499999999998
aF123.4164
aF28400
aF458
aF328
aa(lp899
F1442235700
aF37.6477
aF123.4061
aF28300
aF456
aF323
aa(lp900
F1442235706
aF37.659199999999998
aF123.3938
aF28175
aF453
aF319
aa(lp901
F1442235709
aF37.662300000000002
aF123.3903
aF28150
aF453
aF318
aa(lp902
F1442235715
aF37.6691
aF123.3818
aF28050
aF452
aF316
aa(lp903
F1442235726
aF37.683500000000002
aF123.36369999999999
aF27900
aF449
aF315
aa(lp904
F1442235736
aF37.703200000000002
aF123.3387
aF27725
aF451
aF315
aa(lp905
F1442235741
aF37.706099999999999
aF123.33499999999999
aF27675
aF451
aF315
aa(lp906
F1442235746
aF37.715600000000002
aF123.3229
aF27625
aF456
aF315
aa(lp907
F1442235756
aF37.733199999999997
aF123.3006
aF27575
aF458
aF315
aa(lp908
F1442235762
aF37.7395
aF123.29259999999999
aF27575
aF460
aF315
aa(lp909
F1442235766
aF37.746699999999997
aF123.2834
aF27575
aF461
aF315
aa(lp910
F1442235771
aF37.754600000000003
aF123.2735
aF27575
aF461
aF315
aa(lp911
F1442235777
aF37.760899999999999
aF123.2654
aF27600
aF461
aF315
aa(lp912
F1442235786
aF37.776800000000001
aF123.2452
aF27600
aF461
aF315
aa(lp913
F1442235791
aF37.784599999999998
aF123.2353
aF27600
aF461
aF315
aa(lp914
F1442235801
aF37.798699999999997
aF123.21729999999999
aF27600
aF461
aF315
aa(lp915
F1442235806
aF37.808300000000003
aF123.2051
aF27600
aF460
aF315
aa(lp916
F1442235811
aF37.8125
aF123.19970000000001
aF27600
aF460
aF315
aa(lp917
F1442235821
aF37.829799999999999
aF123.1776
aF27600
aF460
aF315
aa(lp918
F1442235826
aF37.837899999999998
aF123.1673
aF27600
aF460
aF315
aa(lp919
F1442235831
aF37.845700000000001
aF123.15730000000001
aF27600
aF460
aF315
aa(lp920
F1442235836
aF37.8523
aF123.1489
aF27600
aF460
aF315
aa(lp921
F1442235841
aF37.859699999999997
aF123.13939999999999
aF27600
aF459
aF315
aa(lp922
F1442235846
aF37.865699999999997
aF123.1317
aF27600
aF459
aF315
aa(lp923
F1442235856
aF37.883699999999997
aF123.10890000000001
aF27600
aF459
aF315
aa(lp924
F1442235862
aF37.886400000000002
aF123.1054
aF27600
aF459
aF315
aa(lp925
F1442235877
aF37.9131
aF123.0715
aF27600
aF460
aF315
aa(lp926
F1442235881
aF37.9191
aF123.0639
aF27600
aF460
aF315
aa(lp927
F1442235897
aF37.942900000000002
aF123.0339
aF27600
aF460
aF315
aa(lp928
F1442235906
aF37.956699999999998
aF123.0164
aF27600
aF460
aF315
aa(lp929
F1442235916
aF37.9724
aF122.9966
aF27600
aF460
aF315
aa(lp930
F1442235926
aF37.986800000000002
aF122.9783
aF27600
aF461
aF315
aa(lp931
F1442235931
aF37.992600000000003
aF122.971
aF27600
aF461
aF315
aa(lp932
F1442235936
aF38.000700000000002
aF122.9607
aF27600
aF461
aF315
aa(lp933
F1442235946
aF38.018500000000003
aF122.9383
aF27600
aF459
aF315
aa(lp934
F1442235956
aF38.032299999999999
aF122.9208
aF27600
aF459
aF315
aa(lp935
F1442235966
aF38.048000000000002
aF122.901
aF27600
aF459
aF315
aa(lp936
F1442235971
aF38.054900000000004
aF122.89230000000001
aF27600
aF460
aF315
aa(lp937
F1442235976
aF38.063899999999997
aF122.88079999999999
aF27600
aF460
aF315
aa(lp938
F1442235982
aF38.069000000000003
aF122.87430000000001
aF27600
aF460
aF315
aa(lp939
F1442235986
aF38.076599999999999
aF122.8647
aF27600
aF460
aF315
aa(lp940
F1442235991
aF38.081099999999999
aF122.85899999999999
aF27600
aF460
aF315
aa(lp941
F1442235996
aF38.093400000000003
aF122.8433
aF27600
aF461
aF315
aa(lp942
F1442236002
aF38.099499999999999
aF122.8357
aF27600
aF461
aF315
aa(lp943
F1442236006
aF38.105600000000003
aF122.82810000000001
aF27600
aF461
aF315
aa(lp944
F1442236012
aF38.114899999999999
aF122.8163
aF27600
aF461
aF315
aa(lp945
F1442236017
aF38.123699999999999
aF122.8052
aF27600
aF461
aF315
aa(lp946
F1442236021
aF38.130600000000001
aF122.79640000000001
aF27600
aF461
aF316
aa(lp947
F1442236032
aF38.145499999999998
aF122.7777
aF27600
aF461
aF316
aa(lp948
F1442236036
aF38.153599999999997
aF122.76739999999999
aF27600
aF461
aF316
aa(lp949
F1442236041
aF38.160200000000003
aF122.7589
aF27600
aF461
aF315
aa(lp950
F1442236046
aF38.1693
aF122.7474
aF27600
aF461
aF315
aa(lp951
F1442236051
aF38.174999999999997
aF122.7402
aF27600
aF461
aF315
aa(lp952
F1442236061
aF38.190399999999997
aF122.7206
aF27600
aF462
aF315
aa(lp953
F1442236066
aF38.198900000000002
aF122.7098
aF27600
aF462
aF315
aa(lp954
F1442236071
aF38.205800000000004
aF122.70099999999999
aF27600
aF462
aF315
aa(lp955
F1442236076
aF38.212699999999998
aF122.6921
aF27600
aF462
aF315
aa(lp956
F1442236086
aF38.229599999999998
aF122.67059999999999
aF27600
aF462
aF315
aa(lp957
F1442236091
aF38.236899999999999
aF122.6613
aF27600
aF461
aF315
aa(lp958
F1442236102
aF38.250500000000002
aF122.64409999999999
aF27600
aF461
aF315
aa(lp959
F1442236106
aF38.2592
aF122.633
aF27600
aF461
aF315
aa(lp960
F1442236111
aF38.266199999999998
aF122.6241
aF27600
aF462
aF315
aa(lp961
F1442236116
aF38.275300000000001
aF122.6126
aF27600
aF461
aF315
aa(lp962
F1442236136
aF38.304200000000002
aF122.5758
aF27600
aF461
aF315
aa(lp963
F1442236153
aF38.325299999999999
aF122.5489
aF27600
aF462
aF315
aa(lp964
F1442236157
aF38.334699999999998
aF122.53700000000001
aF27600
aF462
aF316
aa(lp965
F1442236161
aF38.343000000000004
aF122.5275
aF27600
aF461
aF317
aa(lp966
F1442236166
aF38.349400000000003
aF122.521
aF27600
aF462
aF322
aa(lp967
F1442236176
aF38.367699999999999
aF122.50660000000001
aF27600
aF462
aF331
aa(lp968
F1442236181
aF38.375500000000002
aF122.50190000000001
aF27600
aF462
aF334
aa(lp969
F1442236186
aF38.382300000000001
aF122.4984
aF27600
aF462
aF337
aa(lp970
F1442236192
aF38.395099999999999
aF122.4933
aF27600
aF463
aF344
aa(lp971
F1442236201
aF38.4191
aF122.48820000000001
aF27600
aF464
aF354
aa(lp972
F1442236211
aF38.440899999999999
aF122.48779999999999
aF27600
aF468
aF1
aa(lp973
F1442236216
aF38.455300000000001
aF122.4889
aF27600
aF468
aF2
aa(lp974
F1442236226
aF38.476199999999999
aF122.4911
aF27475
aF470
aF4
aa(lp975
F1442236251
aF38.5212
aF122.5044
aF27475
aF470
aF13
aa(lp976
F1442236263
aF38.5428
aF122.5108
aF27475
aF470
aF13
aa(lp977
F1442236275
aF38.564399999999999
aF122.5172
aF27475
aF470
aF13
aa(lp978
F1442236287
aF38.585999999999999
aF122.5236
aF27475
aF470
aF13
aa(lp979
F1442236299
aF38.607599999999998
aF122.53
aF27475
aF470
aF13
aa(lp980
F1442236311
aF38.629199999999997
aF122.5364
aF27475
aF470
aF13
aa(lp981
F1442236323
aF38.6509
aF122.5427
aF27475
aF470
aF13
aa(lp982
F1442236335
aF38.672499999999999
aF122.5491
aF27475
aF470
aF13
aa(lp983
F1442236344
aF38.148800000000001
aF122.7735
aF26600
aF462
aF321
aa(lp984
F1442236371
aF38.195099999999996
aF122.7531
aF26600
aF462
aF341
aa(lp985
F1442236383
aF38.216900000000003
aF122.75360000000001
aF26600
aF462
aF1
aa(lp986
F1442236395
aF38.238500000000002
aF122.758
aF26600
aF462
aF9
aa(lp987
F1442236407
aF38.259999999999998
aF122.7623
aF26600
aF462
aF9
aa(lp988
F1442236419
aF38.281500000000001
aF122.7667
aF26600
aF462
aF9
aa(lp989
F1442236431
aF38.303100000000001
aF122.771
aF26600
aF462
aF9
aa(lp990
F1442236443
aF38.324599999999997
aF122.7753
aF26600
aF462
aF9
aa(lp991
F1442236455
aF38.3461
aF122.77970000000001
aF26600
aF462
aF9
aa(lp992
F1442236467
aF38.367699999999999
aF122.78400000000001
aF26600
aF462
aF9
aa(lp993
F1442236479
aF38.389200000000002
aF122.7884
aF26600
aF462
aF9
aa(lp994
F1442236491
aF38.410699999999999
aF122.7927
aF26600
aF462
aF9
aa(lp995
F1442236503
aF38.432299999999998
aF122.7971
aF26600
aF462
aF9
aa(lp996
F1442236515
aF38.453800000000001
aF122.8015
aF26600
aF462
aF9
aa(lp997
F1442236527
aF38.475299999999997
aF122.8058
aF26600
aF462
aF9
aa(lp998
F1442236539
aF38.496899999999997
aF122.81019999999999
aF26600
aF462
aF9
aa(lp999
F1442236551
aF38.5184
aF122.8145
aF26600
aF462
aF9
aa(lp1000
F1442236563
aF38.539900000000003
aF122.8189
aF26600
aF462
aF9
aa(lp1001
F1442236575
aF38.561500000000002
aF122.8232
aF26600
aF462
aF9
aa(lp1002
F1442236577
aF38.773200000000003
aF122.5367
aF26600
aF465
aF7
aa(lp1003
F1442236603
aF38.819499999999998
aF122.5505
aF26600
aF465
aF13
aa(lp1004
F1442236615
aF38.840899999999998
aF122.5568
aF26600
aF465
aF13
aa(lp1005
F1442236627
aF38.862299999999998
aF122.56310000000001
aF26600
aF465
aF13
aa(lp1006
F1442236639
aF38.883699999999997
aF122.56950000000001
aF26600
aF465
aF13
aa(lp1007
F1442236651
aF38.905099999999997
aF122.5758
aF26600
aF465
aF13
aa(lp1008
F1442236663
aF38.926499999999997
aF122.5821
aF26600
aF465
aF13
aa(lp1009
F1442236675
aF38.947800000000001
aF122.5885
aF26600
aF465
aF13
aa(lp1010
F1442236687
aF38.969200000000001
aF122.59480000000001
aF26600
aF465
aF13
aa(lp1011
F1442236699
aF38.990600000000001
aF122.60120000000001
aF26600
aF465
aF13
aa(lp1012
F1442236711
aF39.012
aF122.60760000000001
aF26600
aF465
aF13
aa(lp1013
F1442236723
aF39.0334
aF122.6139
aF26600
aF465
aF13
aa(lp1014
F1442236735
aF39.054699999999997
aF122.6203
aF26600
aF465
aF13
aa(lp1015
F1442236747
aF39.076099999999997
aF122.6266
aF26600
aF465
aF13
aa(lp1016
F1442236759
aF39.0974
aF122.6335
aF26600
aF465
aF14
aa(lp1017
F1442236771
aF39.118699999999997
aF122.6403
aF26600
aF465
aF14
aa(lp1018
F1442236783
aF39.140000000000001
aF122.64709999999999
aF26600
aF465
aF14
aa(lp1019
F1442236795
aF39.161299999999997
aF122.654
aF26600
aF465
aF14
aa(lp1020
F1442236807
aF39.182600000000001
aF122.66079999999999
aF26600
aF465
aF14
aa(lp1021
F1442236819
aF39.203899999999997
aF122.6677
aF26600
aF465
aF14
aa(lp1022
F1442236831
aF39.225200000000001
aF122.67449999999999
aF26600
aF465
aF14
aa(lp1023
F1442236843
aF39.246499999999997
aF122.6814
aF26600
aF465
aF14
aa(lp1024
F1442236855
aF39.267800000000001
aF122.6883
aF26600
aF465
aF14
aa(lp1025
F1442236867
aF39.289099999999998
aF122.6951
aF26600
aF465
aF14
aa(lp1026
F1442236904
aF39.829700000000003
aF123.0945
aF26600
aF467
aF29
aa(lp1027
F1442236910
aF39.841000000000001
aF123.1027
aF26600
aF467
aF29
aa(lp1028
F1442236913
aF39.843299999999999
aF123.1044
aF26600
aF467
aF29
aa(lp1029
F1442236919
aF39.854999999999997
aF123.1129
aF26600
aF467
aF29
aa(lp1030
F1442236925
aF39.868899999999996
aF123.123
aF26600
aF467
aF29
aa(lp1031
F1442236931
aF39.878700000000002
aF123.1302
aF26600
aF466
aF29
aa(lp1032
F1442236959
aF39.929400000000001
aF123.14060000000001
aF26600
aF466
aF9
aa(lp1033
F1442236971
aF39.9512
aF123.1446
aF26600
aF466
aF8
aa(lp1034
F1442236983
aF39.972999999999999
aF123.1486
aF26600
aF466
aF8
aa(lp1035
F1442236995
aF39.994700000000002
aF123.15260000000001
aF26600
aF466
aF8
aa(lp1036
F1442237005
aF40.008099999999999
aF123.2522
aF26600
aF458
aF53
aa(lp1037
F1442237020
aF40.027900000000002
aF123.28449999999999
aF26600
aF462
aF47
aa(lp1038
F1442237026
aF40.037199999999999
aF123.2967
aF26600
aF462
aF43
aa(lp1039
F1442237032
aF40.048099999999998
aF123.3091
aF26600
aF461
aF40
aa(lp1040
F1442237036
aF40.051400000000001
aF123.3126
aF26600
aF461
aF39
aa(lp1041
F1442237046
aF40.068100000000001
aF123.32899999999999
aF26600
aF461
aF35
aa(lp1042
F1442237051
aF40.079799999999999
aF123.33920000000001
aF26600
aF461
aF33
aa(lp1043
F1442237057
aF40.091200000000001
aF123.3489
aF26600
aF459
aF33
aa(lp1044
F1442237062
aF40.0944
aF123.3516
aF26600
aF459
aF33
aa(lp1045
F1442237070
aF40.1128
aF123.3676
aF26600
aF459
aF33
aa(lp1046
F1442237073
aF40.1188
aF123.3729
aF26600
aF459
aF34
aa(lp1047
F1442237082
aF40.134300000000003
aF123.3865
aF26600
aF459
aF33
aa(lp1048
F1442237090
aF40.145699999999998
aF123.39619999999999
aF26600
aF461
aF32
aa(lp1049
F1442237093
aF40.151400000000002
aF123.401
aF26600
aF461
aF32
aa(lp1050
F1442237098
aF40.1631
aF123.41030000000001
aF26600
aF462
aF30
aa(lp1051
F1442237104
aF40.174900000000001
aF123.4192
aF26600
aF462
aF29
aa(lp1052
F1442237114
aF40.191299999999998
aF123.4311
aF26600
aF461
aF29
aa(lp1053
F1442237120
aF40.203699999999998
aF123.44
aF26600
aF461
aF29
aa(lp1054
F1442237126
aF40.2149
aF123.4481
aF26600
aF461
aF29
aa(lp1055
F1442237132
aF40.225299999999997
aF123.45569999999999
aF26600
aF462
aF29
aa(lp1056
F1442237138
aF40.236899999999999
aF123.46420000000001
aF26600
aF462
aF29
aa(lp1057
F1442237141
aF40.243299999999998
aF123.4688
aF26600
aF463
aF29
aa(lp1058
F1442237144
aF40.248899999999999
aF123.4729
aF26600
aF463
aF29
aa(lp1059
F1442237154
aF40.2669
aF123.4859
aF26600
aF463
aF29
aa(lp1060
F1442237157
aF40.272100000000002
aF123.4897
aF26600
aF462
aF29
aa(lp1061
F1442237160
aF40.2774
aF123.4935
aF26600
aF462
aF29
aa(lp1062
F1442237169
aF40.294899999999998
aF123.5063
aF26600
aF461
aF29
aa(lp1063
F1442237178
aF40.312399999999997
aF123.51900000000001
aF26600
aF461
aF29
aa(lp1064
F1442237188
aF40.329900000000002
aF123.5318
aF26600
aF461
aF29
aa(lp1065
F1442237191
aF40.335900000000002
aF123.5361
aF26600
aF461
aF29
aa(lp1066
F1442237197
aF40.347900000000003
aF123.5448
aF26600
aF462
aF29
aa(lp1067
F1442237206
aF40.364699999999999
aF123.557
aF26600
aF461
aF29
aa(lp1068
F1442237209
aF40.370699999999999
aF123.56140000000001
aF26600
aF462
aF29
aa(lp1069
F1442237216
aF40.382300000000001
aF123.5698
aF26600
aF462
aF29
aa(lp1070
F1442237225
aF40.401299999999999
aF123.58369999999999
aF26600
aF462
aF29
aa(lp1071
F1442237230
aF40.4054
aF123.58669999999999
aF26600
aF462
aF29
aa(lp1072
F1442237234
aF40.4178
aF123.5958
aF26600
aF463
aF29
aa(lp1073
F1442237244
aF40.4358
aF123.60890000000001
aF26600
aF463
aF29
aa(lp1074
F1442237250
aF40.4467
aF123.6168
aF26600
aF464
aF29
aa(lp1075
F1442237253
aF40.452300000000001
aF123.62090000000001
aF26600
aF463
aF29
aa(lp1076
F1442237256
aF40.458300000000001
aF123.62520000000001
aF26600
aF463
aF29
aa(lp1077
F1442237266
aF40.476700000000001
aF123.6387
aF26525
aF464
aF29
aa(lp1078
F1442237269
aF40.484200000000001
aF123.6442
aF26450
aF463
aF29
aa(lp1079
F1442237273
aF40.489800000000002
aF123.64830000000001
aF26400
aF463
aF29
aa(lp1080
F1442237282
aF40.506300000000003
aF123.6604
aF26175
aF462
aF29
aa(lp1081
F1442237285
aF40.512599999999999
aF123.66500000000001
aF26100
aF461
aF29
aa(lp1082
F1442237288
aF40.518999999999998
aF123.6696
aF26050
aF461
aF29
aa(lp1083
F1442237298
aF40.534599999999998
aF123.681
aF25825
aF461
aF29
aa(lp1084
F1442237301
aF40.541600000000003
aF123.6862
aF25750
aF460
aF29
aa(lp1085
F1442237305
aF40.547199999999997
aF123.69029999999999
aF25675
aF460
aF29
aa(lp1086
F1442237314
aF40.566200000000002
aF123.7042
aF25425
aF459
aF29
aa(lp1087
F1442237318
aF40.571399999999997
aF123.708
aF25375
aF459
aF29
aa(lp1088
F1442237326
aF40.587600000000002
aF123.72
aF25150
aF458
aF29
aa(lp1089
F1442237332
aF40.599800000000002
aF123.729
aF25000
aF457
aF29
aa(lp1090
F1442237342
aF40.617899999999999
aF123.7422
aF24775
aF456
aF29
aa(lp1091
F1442237346
aF40.623800000000003
aF123.7466
aF24700
aF455
aF29
aa(lp1092
F1442237348
aF40.628900000000002
aF123.7503
aF24600
aF454
aF29
aa(lp1093
F1442237361
aF40.652000000000001
aF123.7672
aF24300
aF454
aF28
aa(lp1094
F1442237364
aF40.658700000000003
aF123.7718
aF24225
aF454
aF27
aa(lp1095
F1442237373
aF40.675199999999997
aF123.7813
aF23975
aF455
aF22
aa(lp1096
F1442237377
aF40.682299999999998
aF123.7846
aF23875
aF454
aF19
aa(lp1097
F1442237386
aF40.701500000000003
aF123.7916
aF23525
aF451
aF12
aa(lp1098
F1442237389
aF40.707599999999999
aF123.7931
aF23375
aF451
aF11
aa(lp1099
F1442237395
aF40.719499999999996
aF123.795
aF23050
aF452
aF5
aa(lp1100
F1442237401
aF40.732799999999997
aF123.7953
aF22800
aF450
aF3
aa(lp1101
F1442237424
aF40.776400000000002
aF123.79340000000001
aF21950
aF437
aF357
aa(lp1102
F1442237430
aF40.790500000000002
aF123.7927
aF21625
aF435
aF357
aa(lp1103
F1442237436
aF40.804200000000002
aF123.7921
aF21300
aF435
aF357
aa(lp1104
F1442237439
aF40.810600000000001
aF123.79170000000001
aF21175
aF434
aF357
aa(lp1105
F1442237445
aF40.821800000000003
aF123.7912
aF20900
aF433
aF358
aa(lp1106
F1442237452
aF40.834600000000002
aF123.7906
aF20650
aF431
aF358
aa(lp1107
F1442237455
aF40.841299999999997
aF123.7903
aF20525
aF430
aF358
aa(lp1108
F1442237461
aF40.854799999999997
aF123.7897
aF20250
aF428
aF357
aa(lp1109
F1442237471
aF40.870899999999999
aF123.7889
aF19950
aF424
aF357
aa(lp1110
F1442237477
aF40.8842
aF123.78830000000001
aF19725
aF421
aF357
aa(lp1111
F1442237481
aF40.890000000000001
aF123.788
aF19600
aF420
aF357
aa(lp1112
F1442237489
aF40.908900000000003
aF123.7871
aF19250
aF416
aF357
aa(lp1113
F1442237492
aF40.913899999999998
aF123.7869
aF19125
aF415
aF357
aa(lp1114
F1442237501
aF40.9315
aF123.786
aF18775
aF412
aF357
aa(lp1115
F1442237507
aF40.944099999999999
aF123.7854
aF18525
aF410
aF357
aa(lp1116
F1442237514
aF40.953899999999997
aF123.78489999999999
aF18275
aF409
aF357
aa(lp1117
F1442237517
aF40.959600000000002
aF123.7846
aF18125
aF409
aF357
aa(lp1118
F1442237520
aF40.966000000000001
aF123.7843
aF17975
aF408
aF357
aa(lp1119
F1442237526
aF40.978499999999997
aF123.78360000000001
aF17725
aF407
aF357
aa(lp1120
F1442237532
aF40.990099999999998
aF123.7831
aF17475
aF406
aF357
aa(lp1121
F1442237541
aF41.006100000000004
aF123.78230000000001
aF17025
aF399
aF357
aa(lp1122
F1442237544
aF41.012300000000003
aF123.782
aF16825
aF398
aF357
aa(lp1123
F1442237554
aF41.0306
aF123.7811
aF16200
aF394
aF357
aa(lp1124
F1442237557
aF41.035699999999999
aF123.7808
aF16025
aF394
aF357
aa(lp1125
F1442237562
aF41.042700000000004
aF123.7805
aF15800
aF393
aF357
aa(lp1126
F1442237573
aF41.064100000000003
aF123.7794
aF15025
aF390
aF357
aa(lp1127
F1442237576
aF41.069800000000001
aF123.779
aF14875
aF389
aF357
aa(lp1128
F1442237582
aF41.081299999999999
aF123.7784
aF14525
aF386
aF357
aa(lp1129
F1442237589
aF41.090499999999999
aF123.77800000000001
aF14300
aF382
aF357
aa(lp1130
F1442237592
aF41.096400000000003
aF123.7777
aF14200
aF379
aF357
aa(lp1131
F1442237604
aF41.118600000000001
aF123.7766
aF13800
aF365
aF357
aa(lp1132
F1442237610
aF41.127299999999998
aF123.7761
aF13550
aF360
aF357
aa(lp1133
F1442237613
aF41.133000000000003
aF123.77589999999999
aF13400
aF359
aF357
aa(lp1134
F1442237616
aF41.137300000000003
aF123.7757
aF13275
aF358
aF357
aa(lp1135
F1442237625
aF41.152999999999999
aF123.7748
aF12825
aF353
aF357
aa(lp1136
F1442237634
aF41.167700000000004
aF123.7741
aF12300
aF352
aF357
aa(lp1137
F1442237637
aF41.173200000000001
aF123.77379999999999
aF12100
aF351
aF357
aa(lp1138
F1442237640
aF41.178100000000001
aF123.7736
aF11950
aF351
aF357
aa(lp1139
F1442237650
aF41.193899999999999
aF123.7727
aF11525
aF347
aF357
aa(lp1140
F1442237653
aF41.199100000000001
aF123.77249999999999
aF11400
aF345
aF357
aa(lp1141
F1442237659
aF41.207599999999999
aF123.77209999999999
aF11075
aF343
aF357
aa(lp1142
F1442237666
aF41.2181
aF123.7715
aF10725
aF342
aF357
aa(lp1143
F1442237669
aF41.223199999999999
aF123.7713
aF10575
aF342
aF357
aa(lp1144
F1442237672
aF41.228900000000003
aF123.771
aF10425
aF341
aF357
aa(lp1145
F1442237678
aF41.238599999999998
aF123.7706
aF10275
aF338
aF357
aa(lp1146
F1442237681
aF41.243899999999996
aF123.77030000000001
aF10225
aF337
aF357
aa(lp1147
F1442237686
aF41.247599999999998
aF123.7702
aF10175
aF335
aF357
aa(lp1148
F1442237697
aF41.266800000000003
aF123.7692
aF9925
aF327
aF357
aa(lp1149
F1442237700
aF41.2714
aF123.76900000000001
aF9875
aF324
aF357
aa(lp1150
F1442237706
aF41.279699999999998
aF123.7685
aF9775
aF321
aF357
aa(lp1151
F1442237709
aF41.284399999999998
aF123.7683
aF9750
aF319
aF357
aa(lp1152
F1442237718
aF41.298400000000001
aF123.7675
aF9600
aF313
aF357
aa(lp1153
F1442237722
aF41.3033
aF123.76730000000001
aF9550
aF311
aF357
aa(lp1154
F1442237727
aF41.311900000000001
aF123.76690000000001
aF9425
aF308
aF357
aa(lp1155
F1442237733
aF41.320099999999996
aF123.76649999999999
aF9275
aF307
aF357
aa(lp1156
F1442237746
aF41.337600000000002
aF123.76560000000001
aF8975
aF305
aF357
aa(lp1157
F1442237749
aF41.343000000000004
aF123.7653
aF8875
aF305
aF357
aa(lp1158
F1442237758
aF41.355400000000003
aF123.7647
aF8625
aF304
aF357
aa(lp1159
F1442237761
aF41.3596
aF123.7645
aF8550
aF304
aF357
aa(lp1160
F1442237767
aF41.368299999999998
aF123.7641
aF8400
aF303
aF357
aa(lp1161
F1442237774
aF41.377299999999998
aF123.7636
aF8250
aF302
aF357
aa(lp1162
F1442237780
aF41.385399999999997
aF123.7632
aF8075
aF301
aF357
aa(lp1163
F1442237786
aF41.394300000000001
aF123.7628
aF7900
aF301
aF357
aa(lp1164
F1442237789
aF41.398200000000003
aF123.76260000000001
aF7825
aF300
aF357
aa(lp1165
F1442237793
aF41.403399999999998
aF123.7623
aF7725
aF300
aF357
aa(lp1166
F1442237805
aF41.419499999999999
aF123.7615
aF7425
aF297
aF357
aa(lp1167
F1442237808
aF41.424100000000003
aF123.7612
aF7325
aF296
aF357
aa(lp1168
F1442237814
aF41.433399999999999
aF123.7607
aF7150
aF296
aF357
aa(lp1169
F1442237818
aF41.4375
aF123.76049999999999
aF7075
aF296
aF357
aa(lp1170
F1442237834
aF41.458300000000001
aF123.7594
aF6650
aF294
aF357
aa(lp1171
F1442237846
aF41.476199999999999
aF123.7586
aF6350
aF292
aF357
aa(lp1172
F1442237849
aF41.480499999999999
aF123.75839999999999
aF6275
aF291
aF357
aa(lp1173
F1442237858
aF41.4923
aF123.7578
aF6050
aF290
aF357
aa(lp1174
F1442237864
aF41.500900000000001
aF123.7574
aF5875
aF289
aF357
aa(lp1175
F1442237870
aF41.509399999999999
aF123.7569
aF5725
aF288
aF357
aa(lp1176
F1442237877
aF41.517099999999999
aF123.7565
aF5575
aF287
aF357
aa(lp1177
F1442237880
aF41.521099999999997
aF123.7563
aF5500
aF286
aF357
aa(lp1178
F1442237883
aF41.5259
aF123.7561
aF5425
aF285
aF357
aa(lp1179
F1442237892
aF41.539000000000001
aF123.75539999999999
aF5200
aF283
aF357
aa(lp1180
F1442237902
aF41.549700000000001
aF123.7548
aF5000
aF281
aF357
aa(lp1181
F1442237905
aF41.554099999999998
aF123.7546
aF4900
aF280
aF357
aa(lp1182
F1442237914
aF41.566499999999998
aF123.75360000000001
aF4675
aF279
aF355
aa(lp1183
F1442237920
aF41.574599999999997
aF123.75230000000001
aF4525
aF277
aF352
aa(lp1184
F1442237924
aF41.577199999999998
aF123.7518
aF4450
aF276
aF351
aa(lp1185
F1442237930
aF41.585299999999997
aF123.75
aF4275
aF276
aF350
aa(lp1186
F1442237938
aF41.594200000000001
aF123.7479
aF4175
aF273
aF349
aa(lp1187
F1442237945
aF41.606000000000002
aF123.74469999999999
aF4075
aF266
aF348
aa(lp1188
F1442237949
aF41.609299999999998
aF123.74379999999999
aF4050
aF264
aF348
aa(lp1189
F1442237958
aF41.620399999999997
aF123.7406
aF3950
aF258
aF348
aa(lp1190
F1442237962
aF41.624600000000001
aF123.73950000000001
aF3900
aF256
aF348
aa(lp1191
F1442237968
aF41.631900000000002
aF123.73739999999999
aF3850
aF253
aF348
aa(lp1192
F1442237971
aF41.634500000000003
aF123.7368
aF3800
aF251
aF348
aa(lp1193
F1442237978
aF41.642299999999999
aF123.7346
aF3750
aF246
aF348
aa(lp1194
F1442237983
aF41.6494
aF123.7328
aF3675
aF242
aF349
aa(lp1195
F1442237990
aF41.656199999999998
aF123.7311
aF3625
aF239
aF349
aa(lp1196
F1442237993
aF41.659700000000001
aF123.7302
aF3600
aF238
aF349
aa(lp1197
F1442238002
aF41.669499999999999
aF123.7277
aF3475
aF233
aF349
aa(lp1198
F1442238005
aF41.672400000000003
aF123.7269
aF3450
aF232
aF349
aa(lp1199
F1442238008
aF41.674900000000001
aF123.72629999999999
aF3425
aF230
aF349
aa(lp1200
F1442238018
aF41.684699999999999
aF123.7235
aF3325
aF223
aF346
aa(lp1201
F1442238024
aF41.691200000000002
aF123.721
aF3275
aF218
aF343
aa(lp1202
F1442238030
aF41.696300000000001
aF123.7188
aF3225
aF215
aF342
aa(lp1203
F1442238037
aF41.7029
aF123.7159
aF3150
aF211
aF341
aa(lp1204
F1442238041
aF41.704500000000003
aF123.71510000000001
aF3150
aF210
aF341
aa(lp1205
F1442238047
aF41.710299999999997
aF123.7124
aF3175
aF200
aF339
aa(lp1206
F1442238054
aF41.716900000000003
aF123.70869999999999
aF3050
aF193
aF335
aa(lp1207
F1442238060
aF41.720999999999997
aF123.7055
aF2950
aF192
aF329
aa(lp1208
F1442238068
aF41.727400000000003
aF123.6992
aF2775
aF190
aF322
aa(lp1209
F1442238085
aF41.738700000000001
aF123.6848
aF2450
aF183
aF307
aa(lp1210
F1442238088
aF41.740299999999998
aF123.6814
aF2400
aF181
aF301
aa(lp1211
F1442238094
aF41.742199999999997
aF123.6763
aF2325
aF177
aF294
aa(lp1212
F1442238097
aF41.743000000000002
aF123.6734
aF2325
aF175
aF291
aa(lp1213
F1442238112
aF41.744799999999998
aF123.6567
aF2275
aF169
aF269
aa(lp1214
F1442238118
aF41.744599999999998
aF123.6511
aF2275
aF168
aF265
aa(lp1215
F1442238130
aF41.741399999999999
aF123.6395
aF2275
aF162
aF240
aa(lp1216
F1442238142
aF41.7363
aF123.6302
aF2300
aF146
aF231
aa(lp1217
F1442238145
aF41.735199999999999
aF123.6285
aF2300
aF141
aF231
aa(lp1218
F1442238148
aF41.733899999999998
aF123.6262
aF2300
aF137
aF231
aa(lp1219
F1442238158
aF41.7301
aF123.6199
aF2300
aF133
aF230
aa(lp1220
F1442238163
aF41.728000000000002
aF123.61669999999999
aF2250
aF131
aF229
aa(lp1221
F1442238167
aF41.726799999999997
aF123.6148
aF2250
aF131
aF228
aa(lp1222
F1442238173
aF41.724200000000003
aF123.611
aF2175
aF131
aF229
aa(lp1223
F1442238181
aF41.720599999999997
aF123.6053
aF2050
aF131
aF229
aa(lp1224
F1442238186
aF41.719200000000001
aF123.6032
aF2000
aF130
aF228
aa(lp1225
F1442238188
aF41.718299999999999
aF123.6019
aF1950
aF130
aF228
aa(lp1226
F1442238200
aF41.7134
aF123.59439999999999
aF1825
aF127
aF228
aa(lp1227
F1442238206
aF41.710900000000002
aF123.59059999999999
aF1750
aF128
aF228
aa(lp1228
F1442238209
aF41.709699999999998
aF123.58880000000001
aF1725
aF128
aF228
aa(lp1229
F1442238212
aF41.709299999999999
aF123.5882
aF1700
aF129
aF228
aa(lp1230
F1442238221
aF41.705300000000001
aF123.5822
aF1600
aF129
aF228
aa(lp1231
F1442238230
aF41.701300000000003
aF123.5761
aF1500
aF128
aF228
aa(lp1232
F1442238233
aF41.700099999999999
aF123.57429999999999
aF1450
aF129
aF228
aa(lp1233
F1442238239
aF41.698500000000003
aF123.5718
aF1400
aF129
aF228
aa(lp1234
F1442238247
aF41.695300000000003
aF123.56699999999999
aF1325
aF129
aF228
aa(lp1235
F1442238253
aF41.692999999999998
aF123.5635
aF1250
aF129
aF229
aa(lp1236
F1442238256
aF41.691400000000002
aF123.5611
aF1200
aF129
aF229
aa(lp1237
F1442238283
aF41.682400000000001
aF123.5472
aF1200
aF129
aF229
aa(lp1238
F1442238286
aF41.691400000000002
aF123.5611
aF900
aF128
aF229
aa(lp1239
F1442238294
aF41.676099999999998
aF123.53789999999999
aF775
aF127
aF228
aa(lp1240
F1442238304
aF41.672499999999999
aF123.5326
aF675
aF127
aF228
aa(lp1241
F1442238314
aF41.668900000000001
aF123.52719999999999
aF575
aF127
aF228
aa(lp1242
F1442238322
aF41.665300000000002
aF123.52160000000001
aF475
aF127
aF228
aa(lp1243
F1442238325
aF41.663899999999998
aF123.51949999999999
aF425
aF127
aF228
aa(lp1244
F1442238328
aF41.6629
aF123.518
aF400
aF127
aF228
aa(lp1245
F1442238338
aF41.659300000000002
aF123.5127
aF300
aF127
aF228
aa(lp1246
F1442238341
aF41.658000000000001
aF123.51049999999999
aF250
aF127
aF229
aa(lp1247
F1442238344
aF41.656700000000001
aF123.5086
aF225
aF127
aF229
aa(lp1248
F1442238353
aF41.653100000000002
aF123.5031
aF100
aF128
aF228
aa(lp1249
F1442238381
aF41.642899999999997
aF123.48779999999999
aF0
aF110
aF227
aa(lp1250
F1442238393
aF41.639499999999998
aF123.48269999999999
aF0
aF68
aF230
aa(lp1251
F1442238396
aF41.639099999999999
aF123.4821
aF0
aF55
aF227
aa(lp1252
F1442238400
aF41.6387
aF123.4815
aF0
aF43
aF227
aa(lp1253
F1442238411
aF41.637300000000003
aF123.4798
aF0
aF28
aF213
aa(lp1254
F1442238414
aF41.637
aF123.47969999999999
aF0
aF27
aF208
aa(lp1255
F1442238431
aF41.6357
aF123.479
aF0
aF19
aF199
aa(lp1256
F1442238436
aF41.635100000000001
aF123.4787
aF0
aF17
aF199
aa(lp1257
F1442238445
aF41.634599999999999
aF123.4785
aF0
aF27
aF199
aa(lp1258
F1442238455
aF41.634099999999997
aF123.4781
aF0
aF30
aF216
aa(lp1259
F1442238467
aF41.633600000000001
aF123.4774
aF0
aF27
aF230
aa(lp1260
F1442238470
aF41.633499999999998
aF123.4773
aF0
aF28
aF227
aa(lp1261
F1442238476
aF41.633299999999998
aF123.477
aF0
aF23
aF227
aa(lp1262
F1442238480
aF41.633200000000002
aF123.4769
aF0
aF22
aF210
aa(lp1263
F1442238491
aF41.6327
aF123.4772
aF0
aF27
aF140
aa(lp1264
F1442238498
aF41.6325
aF123.4774
aF0
aF28
aF137
aa(lp1265
F1442238501
aF41.632399999999997
aF123.47750000000001
aF0
aF28
aF137
aa(lp1266
F1442238505
aF41.632300000000001
aF123.4776
aF0
aF28
aF140
aa(lp1267
F1442238514
aF41.631900000000002
aF123.4781
aF0
aF29
aF137
aa(lp1268
F1442238547
aF41.630200000000002
aF123.48
aF0
aF15
aF137
aa(lp1269
F1442238556
aF41.6297
aF123.4806
aF0
aF15
aF137
aa(lp1270
F1442238580
aF41.628300000000003
aF123.4823
aF0
aF18
aF137
aa(lp1271
F1442238600
aF41.627000000000002
aF123.4838
aF0
aF19
aF137
aa(lp1272
F1442238611
aF41.626199999999997
aF123.48480000000001
aF0
aF18
aF137
aa(lp1273
F1442238617
aF41.625799999999998
aF123.48520000000001
aF0
aF32
aF137
aa(lp1274
F1442238627
aF41.625599999999999
aF123.48569999999999
aF0
aF25
aF101
aa(lp1275
F1442238646
aF41.626100000000001
aF123.4866
aF0
aF27
aF47
aa(lp1276
F1442238664
aF41.626800000000003
aF123.4877
aF0
aF24
aF50
aa(lp1277
F1442238670
aF41.626800000000003
aF123.48779999999999
aF0
aF20
aF61
aa(lp1278
F1442238674
aF41.626899999999999
aF123.488
aF0
aF19
aF75
aa(lp1279
F1442238682
aF41.626899999999999
aF123.4883
aF0
aF2
aF78
aa(lp1280
F1442238685
aF41.626899999999999
aF123.4884
aF0
aF2
aF78
aa(lp1281
F1442238694
aF41.626899999999999
aF123.4884
aF0
aF2
aF78
aa(lp1282
F1442238698
aF41.626899999999999
aF123.4884
aF0
aF2
aF78
aa(lp1283
F1442238702
aF41.626899999999999
aF123.4885
aF0
aF2
aF78
aa(lp1284
F1442238713
aF41.626899999999999
aF123.4885
aF0
aF2
aF78
aa(lp1285
F1442238719
aF41.626899999999999
aF123.4885
aF0
aF2
aF78
aa(lp1286
F1442238725
aF41.626899999999999
aF123.4885
aF0
aF2
aF78
aa(lp1287
F1442238729
aF41.626899999999999
aF123.4885
aF0
aF2
aF78
aa(lp1288
F1442238738
aF41.626899999999999
aF123.4885
aF0
aF2
aF78
aa(lp1289
F1442238745
aF41.626899999999999
aF123.4885
aF0
aF2
aF78
aa(lp1290
F1442238754
aF41.626899999999999
aF123.4885
aF0
aF2
aF78
aa(lp1291
F1442238761
aF41.626899999999999
aF123.4884
aF0
aF2
aF78
aa(lp1292
F1442238769
aF41.626899999999999
aF123.4885
aF0
aF2
aF78
aa(lp1293
F1442238776
aF41.626899999999999
aF123.4885
aF0
aF2
aF78
aa(lp1294
F1442238804
aF41.626899999999999
aF123.4884
aF0
aF2
aF78
aa.