(lp1
(lp2
F1442129119
aF32.006900000000002
aF34.868299999999998
aF0
aF0
aF51
aa(lp3
F1442129125
aF32.006999999999998
aF34.868299999999998
aF0
aF0
aF317
aa(lp4
F1442129135
aF32.006900000000002
aF34.868299999999998
aF0
aF0
aF136
aa(lp5
F1442129140
aF32.006900000000002
aF34.868299999999998
aF0
aF0
aF136
aa(lp6
F1442129147
aF32.006900000000002
aF34.868299999999998
aF0
aF0
aF317
aa(lp7
F1442129151
aF32.006900000000002
aF34.868299999999998
aF0
aF0
aF317
aa(lp8
F1442129170
aF32.006900000000002
aF34.868299999999998
aF0
aF0
aF206
aa(lp9
F1442129177
aF32.006900000000002
aF34.868299999999998
aF0
aF0
aF154
aa(lp10
F1442129186
aF32.006900000000002
aF34.868299999999998
aF0
aF0
aF206
aa(lp11
F1442129202
aF32.006900000000002
aF34.868299999999998
aF0
aF0
aF298
aa(lp12
F1442129210
aF32.006900000000002
aF34.868299999999998
aF0
aF0
aF243
aa(lp13
F1442129217
aF32.006900000000002
aF34.868299999999998
aF0
aF0
aF136
aa(lp14
F1442129220
aF32.006900000000002
aF34.868299999999998
aF0
aF0
aF136
aa(lp15
F1442129235
aF32.006900000000002
aF34.868299999999998
aF0
aF0
aF136
aa(lp16
F1442129246
aF32.006900000000002
aF34.868299999999998
aF0
aF0
aF136
aa(lp17
F1442129249
aF32.006900000000002
aF34.868299999999998
aF0
aF0
aF136
aa(lp18
F1442129257
aF32.006900000000002
aF34.868299999999998
aF0
aF0
aF136
aa(lp19
F1442129261
aF32.006900000000002
aF34.868299999999998
aF0
aF0
aF136
aa(lp20
F1442129270
aF32.006900000000002
aF34.868299999999998
aF0
aF0
aF335
aa(lp21
F1442129279
aF32.006900000000002
aF34.868299999999998
aF0
aF0
aF43
aa(lp22
F1442129285
aF32.006900000000002
aF34.868200000000002
aF0
aF0
aF224
aa(lp23
F1442129291
aF32.006900000000002
aF34.868299999999998
aF0
aF0
aF43
aa(lp24
F1442129294
aF32.006900000000002
aF34.868299999999998
aF0
aF0
aF43
aa(lp25
F1442129300
aF32.006900000000002
aF34.868299999999998
aF0
aF0
aF43
aa(lp26
F1442129311
aF32.006900000000002
aF34.868200000000002
aF0
aF0
aF317
aa(lp27
F1442129323
aF32.006900000000002
aF34.868299999999998
aF0
aF0
aF62
aa(lp28
F1442129325
aF32.006900000000002
aF34.868200000000002
aF0
aF0
aF243
aa(lp29
F1442129331
aF32.006900000000002
aF34.868299999999998
aF0
aF0
aF62
aa(lp30
F1442129337
aF32.006900000000002
aF34.868299999999998
aF0
aF0
aF62
aa(lp31
F1442129346
aF32.006900000000002
aF34.868299999999998
aF0
aF0
aF62
aa(lp32
F1442129355
aF32.006900000000002
aF34.868299999999998
aF0
aF0
aF25
aa(lp33
F1442129361
aF32.006900000000002
aF34.868299999999998
aF0
aF0
aF70
aa(lp34
F1442129367
aF32.006900000000002
aF34.868299999999998
aF0
aF0
aF25
aa(lp35
F1442129370
aF32.006900000000002
aF34.868299999999998
aF0
aF0
aF317
aa(lp36
F1442129385
aF32.006900000000002
aF34.868299999999998
aF0
aF0
aF317
aa(lp37
F1442129391
aF32.006900000000002
aF34.868299999999998
aF0
aF0
aF317
aa(lp38
F1442129397
aF32.006900000000002
aF34.868299999999998
aF0
aF0
aF136
aa(lp39
F1442129400
aF32.006900000000002
aF34.868299999999998
aF0
aF0
aF317
aa(lp40
F1442129406
aF32.006900000000002
aF34.868299999999998
aF0
aF0
aF25
aa(lp41
F1442129412
aF32.006900000000002
aF34.868299999999998
aF0
aF0
aF25
aa(lp42
F1442129416
aF32.006900000000002
aF34.868299999999998
aF0
aF0
aF25
aa(lp43
F1442129422
aF32.006900000000002
aF34.868299999999998
aF0
aF0
aF25
aa(lp44
F1442129426
aF32.006900000000002
aF34.868299999999998
aF0
aF0
aF206
aa(lp45
F1442129430
aF32.006900000000002
aF34.868299999999998
aF0
aF0
aF25
aa(lp46
F1442129440
aF32.006900000000002
aF34.868299999999998
aF0
aF0
aF25
aa(lp47
F1442129446
aF32.006900000000002
aF34.868299999999998
aF0
aF0
aF70
aa(lp48
F1442129453
aF32.006900000000002
aF34.868299999999998
aF0
aF0
aF70
aa(lp49
F1442129461
aF32.006900000000002
aF34.868299999999998
aF0
aF0
aF136
aa(lp50
F1442129468
aF32.006900000000002
aF34.868299999999998
aF0
aF0
aF317
aa(lp51
F1442129475
aF32.006900000000002
aF34.868299999999998
aF0
aF0
aF25
aa(lp52
F1442129478
aF32.006900000000002
aF34.868299999999998
aF0
aF0
aF206
aa(lp53
F1442129486
aF32.006900000000002
aF34.868299999999998
aF0
aF0
aF35
aa(lp54
F1442129491
aF32.006900000000002
aF34.868299999999998
aF0
aF0
aF35
aa(lp55
F1442129497
aF32.006900000000002
aF34.868299999999998
aF0
aF0
aF35
aa(lp56
F1442129506
aF32.006900000000002
aF34.868299999999998
aF0
aF0
aF159
aa(lp57
F1442129515
aF32.006900000000002
aF34.868299999999998
aF0
aF0
aF62
aa(lp58
F1442129522
aF32.006900000000002
aF34.868299999999998
aF0
aF0
aF62
aa(lp59
F1442129527
aF32.006900000000002
aF34.868299999999998
aF0
aF0
aF317
aa(lp60
F1442129536
aF32.006900000000002
aF34.868299999999998
aF0
aF0
aF224
aa(lp61
F1442129543
aF32.006900000000002
aF34.868299999999998
aF0
aF0
aF224
aa(lp62
F1442129553
aF32.006900000000002
aF34.868299999999998
aF0
aF0
aF317
aa(lp63
F1442129561
aF32.006900000000002
aF34.868299999999998
aF0
aF0
aF317
aa(lp64
F1442129566
aF32.006900000000002
aF34.868299999999998
aF0
aF0
aF317
aa(lp65
F1442129576
aF32.006900000000002
aF34.868299999999998
aF0
aF0
aF317
aa(lp66
F1442129581
aF32.006900000000002
aF34.868299999999998
aF0
aF0
aF248
aa(lp67
F1442129588
aF32.006900000000002
aF34.868299999999998
aF0
aF0
aF248
aa(lp68
F1442129591
aF32.006900000000002
aF34.868299999999998
aF0
aF0
aF248
aa(lp69
F1442129597
aF32.006900000000002
aF34.868299999999998
aF0
aF0
aF75
aa(lp70
F1442129604
aF32.006900000000002
aF34.868299999999998
aF0
aF0
aF206
aa(lp71
F1442129606
aF32.006900000000002
aF34.868299999999998
aF0
aF0
aF261
aa(lp72
F1442129613
aF32.006900000000002
aF34.868299999999998
aF0
aF0
aF261
aa(lp73
F1442129618
aF32.006900000000002
aF34.868299999999998
aF0
aF0
aF317
aa(lp74
F1442129621
aF32.006900000000002
aF34.868299999999998
aF0
aF0
aF67
aa(lp75
F1442129627
aF32.006900000000002
aF34.868299999999998
aF0
aF0
aF67
aa(lp76
F1442129637
aF32.006900000000002
aF34.868299999999998
aF0
aF0
aF54
aa(lp77
F1442129642
aF32.006900000000002
aF34.868299999999998
aF0
aF0
aF54
aa(lp78
F1442129651
aF32.006900000000002
aF34.868299999999998
aF0
aF0
aF317
aa(lp79
F1442129666
aF32.006900000000002
aF34.868299999999998
aF0
aF0
aF317
aa(lp80
F1442129676
aF32.006900000000002
aF34.868299999999998
aF0
aF0
aF136
aa(lp81
F1442129684
aF32.006900000000002
aF34.868299999999998
aF0
aF0
aF25
aa(lp82
F1442129696
aF32.006900000000002
aF34.868299999999998
aF0
aF0
aF206
aa(lp83
F1442129701
aF32.006900000000002
aF34.868299999999998
aF0
aF0
aF25
aa(lp84
F1442129707
aF32.006900000000002
aF34.868299999999998
aF0
aF0
aF317
aa(lp85
F1442129712
aF32.006999999999998
aF34.868299999999998
aF0
aF0
aF317
aa(lp86
F1442129720
aF32.006900000000002
aF34.868299999999998
aF0
aF0
aF224
aa(lp87
F1442129726
aF32.006999999999998
aF34.868299999999998
aF0
aF0
aF317
aa(lp88
F1442129729
aF32.006999999999998
aF34.868299999999998
aF0
aF0
aF317
aa(lp89
F1442129736
aF32.006999999999998
aF34.868299999999998
aF0
aF0
aF317
aa(lp90
F1442129741
aF32.006900000000002
aF34.868299999999998
aF0
aF0
aF224
aa(lp91
F1442129745
aF32.006900000000002
aF34.868299999999998
aF0
aF0
aF224
aa(lp92
F1442129756
aF32.006900000000002
aF34.868299999999998
aF0
aF0
aF224
aa(lp93
F1442129766
aF32.006900000000002
aF34.868299999999998
aF0
aF0
aF136
aa(lp94
F1442129775
aF32.006999999999998
aF34.868299999999998
aF0
aF0
aF46
aa(lp95
F1442129791
aF32.006999999999998
aF34.868299999999998
aF0
aF0
aF224
aa(lp96
F1442129796
aF32.006999999999998
aF34.868299999999998
aF0
aF0
aF224
aa(lp97
F1442129805
aF32.006900000000002
aF34.868299999999998
aF0
aF0
aF224
aa(lp98
F1442129811
aF32.006900000000002
aF34.868299999999998
aF0
aF0
aF224
aa(lp99
F1442129820
aF32.006900000000002
aF34.868299999999998
aF0
aF0
aF224
aa(lp100
F1442129827
aF32.006999999999998
aF34.868299999999998
aF0
aF0
aF43
aa(lp101
F1442129832
aF32.006900000000002
aF34.868299999999998
aF0
aF0
aF208
aa(lp102
F1442129836
aF32.006900000000002
aF34.868299999999998
aF0
aF0
aF208
aa(lp103
F1442129841
aF32.006900000000002
aF34.868299999999998
aF0
aF0
aF208
aa(lp104
F1442129847
aF32.006900000000002
aF34.868299999999998
aF0
aF0
aF306
aa(lp105
F1442129850
aF32.006900000000002
aF34.868299999999998
aF0
aF0
aF306
aa(lp106
F1442129856
aF32.006900000000002
aF34.868299999999998
aF0
aF0
aF206
aa(lp107
F1442129863
aF32.006900000000002
aF34.868299999999998
aF0
aF0
aF206
aa(lp108
F1442129865
aF32.006900000000002
aF34.868299999999998
aF0
aF0
aF206
aa(lp109
F1442129871
aF32.006900000000002
aF34.868299999999998
aF0
aF0
aF206
aa(lp110
F1442129877
aF32.006900000000002
aF34.868299999999998
aF0
aF0
aF154
aa(lp111
F1442129886
aF32.006900000000002
aF34.868299999999998
aF0
aF0
aF154
aa(lp112
F1442129892
aF32.006900000000002
aF34.868299999999998
aF0
aF0
aF43
aa(lp113
F1442129902
aF32.006900000000002
aF34.868299999999998
aF0
aF0
aF43
aa(lp114
F1442129907
aF32.006900000000002
aF34.868299999999998
aF0
aF0
aF43
aa(lp115
F1442129916
aF32.006900000000002
aF34.868299999999998
aF0
aF0
aF224
aa(lp116
F1442129922
aF32.006900000000002
aF34.868299999999998
aF0
aF0
aF224
aa(lp117
F1442129931
aF32.006900000000002
aF34.868299999999998
aF0
aF0
aF43
aa(lp118
F1442129940
aF32.006900000000002
aF34.868299999999998
aF0
aF0
aF243
aa(lp119
F1442129947
aF32.006999999999998
aF34.868299999999998
aF0
aF0
aF243
aa(lp120
F1442129955
aF32.006900000000002
aF34.868299999999998
aF0
aF0
aF206
aa(lp121
F1442129961
aF32.006900000000002
aF34.868299999999998
aF0
aF0
aF206
aa(lp122
F1442129967
aF32.006900000000002
aF34.868299999999998
aF0
aF0
aF235
aa(lp123
F1442129970
aF32.006900000000002
aF34.868299999999998
aF0
aF0
aF335
aa(lp124
F1442129977
aF32.006900000000002
aF34.868299999999998
aF0
aF0
aF335
aa(lp125
F1442129980
aF32.006900000000002
aF34.868299999999998
aF0
aF0
aF154
aa(lp126
F1442129986
aF32.006900000000002
aF34.868299999999998
aF0
aF0
aF154
aa(lp127
F1442129995
aF32.006900000000002
aF34.868299999999998
aF0
aF0
aF335
aa(lp128
F1442130007
aF32.006900000000002
aF34.868299999999998
aF0
aF0
aF206
aa(lp129
F1442130011
aF32.006900000000002
aF34.868299999999998
aF0
aF0
aF206
aa(lp130
F1442130017
aF32.006900000000002
aF34.868200000000002
aF0
aF0
aF243
aa(lp131
F1442130023
aF32.006900000000002
aF34.868200000000002
aF0
aF0
aF243
aa(lp132
F1442130031
aF32.006900000000002
aF34.868200000000002
aF0
aF0
aF298
aa(lp133
F1442130037
aF32.006900000000002
aF34.868299999999998
aF0
aF0
aF298
aa(lp134
F1442130040
aF32.006900000000002
aF34.868299999999998
aF0
aF0
aF298
aa(lp135
F1442130046
aF32.006900000000002
aF34.868299999999998
aF0
aF0
aF298
aa(lp136
F1442130053
aF32.006900000000002
aF34.868299999999998
aF0
aF0
aF298
aa(lp137
F1442130066
aF32.006900000000002
aF34.868299999999998
aF0
aF0
aF206
aa(lp138
F1442130072
aF32.006900000000002
aF34.868200000000002
aF0
aF0
aF206
aa(lp139
F1442130081
aF32.006900000000002
aF34.868200000000002
aF0
aF0
aF136
aa(lp140
F1442130090
aF32.006900000000002
aF34.868200000000002
aF0
aF0
aF136
aa(lp141
F1442130096
aF32.006900000000002
aF34.868200000000002
aF0
aF0
aF136
aa(lp142
F1442130107
aF32.006900000000002
aF34.868200000000002
aF0
aF0
aF317
aa(lp143
F1442130113
aF32.006900000000002
aF34.868200000000002
aF0
aF0
aF317
aa(lp144
F1442130122
aF32.006900000000002
aF34.868200000000002
aF0
aF0
aF224
aa(lp145
F1442130131
aF32.006900000000002
aF34.868200000000002
aF0
aF0
aF224
aa(lp146
F1442130143
aF32.006900000000002
aF34.868200000000002
aF0
aF0
aF43
aa(lp147
F1442130146
aF32.006900000000002
aF34.868200000000002
aF0
aF0
aF43
aa(lp148
F1442130152
aF32.006900000000002
aF34.868299999999998
aF0
aF0
aF43
aa(lp149
F1442130158
aF32.006900000000002
aF34.868299999999998
aF0
aF0
aF70
aa(lp150
F1442130165
aF32.006900000000002
aF34.868299999999998
aF0
aF0
aF70
aa(lp151
F1442130176
aF32.006900000000002
aF34.868299999999998
aF0
aF0
aF25
aa(lp152
F1442130182
aF32.006900000000002
aF34.868299999999998
aF0
aF0
aF136
aa(lp153
F1442130191
aF32.006900000000002
aF34.868299999999998
aF0
aF0
aF224
aa(lp154
F1442130197
aF32.006900000000002
aF34.868299999999998
aF0
aF0
aF224
aa(lp155
F1442130204
aF32.006900000000002
aF34.868299999999998
aF0
aF0
aF206
aa(lp156
F1442130213
aF32.006900000000002
aF34.868299999999998
aF0
aF0
aF25
aa(lp157
F1442130219
aF32.006900000000002
aF34.868299999999998
aF0
aF0
aF206
aa(lp158
F1442130222
aF32.006900000000002
aF34.868299999999998
aF0
aF0
aF206
aa(lp159
F1442130228
aF32.006900000000002
aF34.868299999999998
aF0
aF0
aF206
aa(lp160
F1442130237
aF32.006900000000002
aF34.868299999999998
aF0
aF0
aF317
aa(lp161
F1442130245
aF32.006900000000002
aF34.868299999999998
aF0
aF0
aF136
aa(lp162
F1442130252
aF32.006900000000002
aF34.868299999999998
aF0
aF0
aF136
aa(lp163
F1442130258
aF32.006900000000002
aF34.868299999999998
aF0
aF0
aF43
aa(lp164
F1442130268
aF32.006900000000002
aF34.868299999999998
aF0
aF0
aF317
aa(lp165
F1442130278
aF32.006900000000002
aF34.868299999999998
aF0
aF0
aF224
aa(lp166
F1442130285
aF32.006900000000002
aF34.868299999999998
aF0
aF0
aF136
aa(lp167
F1442130288
aF32.006900000000002
aF34.868299999999998
aF0
aF0
aF117
aa(lp168
F1442130303
aF32.006900000000002
aF34.868299999999998
aF0
aF0
aF117
aa(lp169
F1442130319
aF32.006900000000002
aF34.868299999999998
aF0
aF0
aF20
aa(lp170
F1442130324
aF32.006900000000002
aF34.868299999999998
aF0
aF0
aF20
aa(lp171
F1442130327
aF32.006900000000002
aF34.868299999999998
aF0
aF0
aF20
aa(lp172
F1442130340
aF32.006900000000002
aF34.868299999999998
aF0
aF0
aF20
aa(lp173
F1442130352
aF32.006900000000002
aF34.868299999999998
aF0
aF0
aF224
aa(lp174
F1442130364
aF32.006900000000002
aF34.868299999999998
aF0
aF0
aF224
aa(lp175
F1442130367
aF32.006900000000002
aF34.868299999999998
aF0
aF0
aF136
aa(lp176
F1442130373
aF32.006900000000002
aF34.868299999999998
aF0
aF0
aF136
aa(lp177
F1442130379
aF32.006900000000002
aF34.868200000000002
aF0
aF0
aF136
aa(lp178
F1442130383
aF32.006900000000002
aF34.868299999999998
aF0
aF9
aF300
aa(lp179
F1442130388
aF32.006900000000002
aF34.868299999999998
aF0
aF10
aF303
aa(lp180
F1442130400
aF32.006799999999998
aF34.868499999999997
aF0
aF12
aF303
aa(lp181
F1442130407
aF32.006700000000002
aF34.868600000000001
aF0
aF12
aF298
aa(lp182
F1442130410
aF32.006700000000002
aF34.868699999999997
aF0
aF11
aF292
aa(lp183
F1442130415
aF32.006599999999999
aF34.8688
aF0
aF10
aF289
aa(lp184
F1442130419
aF32.006599999999999
aF34.8688
aF0
aF10
aF286
aa(lp185
F1442130422
aF32.006599999999999
aF34.8688
aF0
aF10
aF281
aa(lp186
F1442130431
aF32.006599999999999
aF34.868899999999996
aF0
aF9
aF264
aa(lp187
F1442130434
aF32.006599999999999
aF34.869
aF0
aF9
aF258
aa(lp188
F1442130440
aF32.006500000000003
aF34.869
aF0
aF9
aF253
aa(lp189
F1442130443
aF32.006500000000003
aF34.869100000000003
aF0
aF9
aF244
aa(lp190
F1442130452
aF32.006599999999999
aF34.869199999999999
aF0
aF2
aF219
aa(lp191
F1442130455
aF32.006599999999999
aF34.869199999999999
aF0
aF2
aF213
aa(lp192
F1442130458
aF32.006599999999999
aF34.869199999999999
aF0
aF2
aF213
aa(lp193
F1442130468
aF32.006599999999999
aF34.869199999999999
aF0
aF0
aF51
aa(lp194
F1442130470
aF32.006599999999999
aF34.869199999999999
aF0
aF0
aF51
aa(lp195
F1442130476
aF32.006599999999999
aF34.869199999999999
aF0
aF0
aF51
aa(lp196
F1442130490
aF32.006599999999999
aF34.869199999999999
aF0
aF0
aF51
aa(lp197
F1442130496
aF32.006599999999999
aF34.869199999999999
aF0
aF0
aF51
aa(lp198
F1442130503
aF32.006599999999999
aF34.869199999999999
aF0
aF0
aF51
aa(lp199
F1442130506
aF32.006599999999999
aF34.869199999999999
aF0
aF0
aF51
aa(lp200
F1442130515
aF32.006599999999999
aF34.869199999999999
aF0
aF0
aF51
aa(lp201
F1442130521
aF32.006599999999999
aF34.869199999999999
aF0
aF0
aF51
aa(lp202
F1442130530
aF32.006599999999999
aF34.869199999999999
aF0
aF0
aF51
aa(lp203
F1442130536
aF32.006599999999999
aF34.869199999999999
aF0
aF0
aF51
aa(lp204
F1442130540
aF32.006599999999999
aF34.869199999999999
aF0
aF0
aF51
aa(lp205
F1442130546
aF32.006599999999999
aF34.869199999999999
aF0
aF0
aF51
aa(lp206
F1442130555
aF32.006599999999999
aF34.869199999999999
aF0
aF0
aF51
aa(lp207
F1442130567
aF32.006599999999999
aF34.869199999999999
aF0
aF0
aF43
aa(lp208
F1442130571
aF32.006599999999999
aF34.869199999999999
aF0
aF0
aF43
aa(lp209
F1442130576
aF32.006599999999999
aF34.869199999999999
aF0
aF0
aF43
aa(lp210
F1442130580
aF32.006599999999999
aF34.869199999999999
aF0
aF0
aF43
aa(lp211
F1442130586
aF32.006599999999999
aF34.869199999999999
aF0
aF0
aF43
aa(lp212
F1442130592
aF32.006599999999999
aF34.869199999999999
aF0
aF0
aF43
aa(lp213
F1442130601
aF32.006599999999999
aF34.869199999999999
aF0
aF0
aF43
aa(lp214
F1442130604
aF32.006599999999999
aF34.869199999999999
aF0
aF0
aF43
aa(lp215
F1442130611
aF32.006599999999999
aF34.869199999999999
aF0
aF0
aF43
aa(lp216
F1442130626
aF32.006500000000003
aF34.869199999999999
aF0
aF10
aF213
aa(lp217
F1442130629
aF32.006500000000003
aF34.869199999999999
aF0
aF11
aF213
aa(lp218
F1442130632
aF32.006500000000003
aF34.869100000000003
aF0
aF12
aF213
aa(lp219
F1442130642
aF32.006300000000003
aF34.869
aF0
aF15
aF205
aa(lp220
F1442130645
aF32.0062
aF34.869
aF0
aF16
aF196
aa(lp221
F1442130648
aF32.006100000000004
aF34.869
aF0
aF17
aF185
aa(lp222
F1442130654
aF32.006
aF34.869100000000003
aF0
aF18
aF157
aa(lp223
F1442130657
aF32.005899999999997
aF34.869199999999999
aF0
aF18
aF137
aa(lp224
F1442130660
aF32.005899999999997
aF34.869300000000003
aF0
aF18
aF123
aa(lp225
F1442130681
aF32.0062
aF34.869900000000001
aF0
aF20
aF30
aa(lp226
F1442130702
aF32.006999999999998
aF34.8705
aF0
aF28
aF30
aa(lp227
F1442130705
aF32.007100000000001
aF34.870600000000003
aF0
aF29
aF30
aa(lp228
F1442130708
aF32.007300000000001
aF34.870699999999999
aF0
aF31
aF30
aa(lp229
F1442130721
aF32.008000000000003
aF34.871299999999998
aF0
aF16
aF30
aa(lp230
F1442130730
aF32.008600000000001
aF34.871699999999997
aF0
aF34
aF30
aa(lp231
F1442130733
aF32.008800000000001
aF34.8718
aF0
aF29
aF30
aa(lp232
F1442130739
aF32.009099999999997
aF34.872
aF0
aF26
aF41
aa(lp233
F1442130742
aF32.009099999999997
aF34.872199999999999
aF0
aF28
aF70
aa(lp234
F1442130745
aF32.009099999999997
aF34.872399999999999
aF0
aF29
aF98
aa(lp235
F1442130751
aF32.008899999999997
aF34.872700000000002
aF0
aF28
aF120
aa(lp236
F1442130754
aF32.008800000000001
aF34.872900000000001
aF0
aF28
aF120
aa(lp237
F1442130757
aF32.008699999999997
aF34.872999999999998
aF0
aF28
aF120
aa(lp238
F1442130766
aF32.008499999999998
aF34.873600000000003
aF0
aF29
aF120
aa(lp239
F1442130769
aF32.008400000000002
aF34.873699999999999
aF0
aF29
aF120
aa(lp240
F1442130778
aF32.008099999999999
aF34.874299999999998
aF0
aF30
aF120
aa(lp241
F1442130781
aF32.008000000000003
aF34.874400000000001
aF0
aF30
aF120
aa(lp242
F1442130790
aF32.0077
aF34.875
aF0
aF31
aF123
aa(lp243
F1442130793
aF32.007599999999996
aF34.8752
aF0
aF32
aF120
aa(lp244
F1442130799
aF32.0075
aF34.875500000000002
aF0
aF32
aF120
aa(lp245
F1442130805
aF32.007300000000001
aF34.875900000000001
aF0
aF33
aF120
aa(lp246
F1442130811
aF32.006999999999998
aF34.876399999999997
aF0
aF15
aF120
aa(lp247
F1442130814
aF32.006900000000002
aF34.876600000000003
aF0
aF15
aF120
aa(lp248
F1442130817
aF32.006799999999998
aF34.8767
aF0
aF15
aF120
aa(lp249
F1442130823
aF32.006500000000003
aF34.877299999999998
aF0
aF16
aF120
aa(lp250
F1442130826
aF32.006399999999999
aF34.877499999999998
aF0
aF16
aF120
aa(lp251
F1442130829
aF32.006300000000003
aF34.877699999999997
aF0
aF17
aF120
aa(lp252
F1442130835
aF32.006100000000004
aF34.8782
aF0
aF17
aF120
aa(lp253
F1442130841
aF32.005800000000001
aF34.878700000000002
aF0
aF33
aF118
aa(lp254
F1442130847
aF32.005800000000001
aF34.878999999999998
aF0
aF25
aF73
aa(lp255
F1442130850
aF32.005899999999997
aF34.879199999999997
aF0
aF26
aF56
aa(lp256
F1442130854
aF32.006100000000004
aF34.879300000000001
aF0
aF28
aF39
aa(lp257
F1442130860
aF32.006300000000003
aF34.8795
aF0
aF32
aF30
aa(lp258
F1442130862
aF32.006500000000003
aF34.8797
aF0
aF15
aF30
aa(lp259
F1442130868
aF32.006900000000002
aF34.879899999999999
aF0
aF16
aF30
aa(lp260
F1442130872
aF32.007100000000001
aF34.880099999999999
aF0
aF16
aF30
aa(lp261
F1442130875
aF32.007300000000001
aF34.880200000000002
aF0
aF15
aF30
aa(lp262
F1442130878
aF32.0075
aF34.880299999999998
aF0
aF15
aF30
aa(lp263
F1442130887
aF32.008099999999999
aF34.880800000000001
aF0
aF18
aF30
aa(lp264
F1442130890
aF32.008299999999998
aF34.881
aF0
aF18
aF30
aa(lp265
F1442130896
aF32.008699999999997
aF34.8812
aF0
aF17
aF30
aa(lp266
F1442130902
aF32.0092
aF34.881500000000003
aF0
aF17
aF30
aa(lp267
F1442130908
aF32.009599999999999
aF34.881900000000002
aF0
aF18
aF30
aa(lp268
F1442130914
aF32.010100000000001
aF34.882199999999997
aF0
aF20
aF30
aa(lp269
F1442130920
aF32.010599999999997
aF34.882599999999996
aF0
aF22
aF30
aa(lp270
F1442130923
aF32.010899999999999
aF34.882800000000003
aF0
aF23
aF30
aa(lp271
F1442130926
aF32.011099999999999
aF34.883000000000003
aF0
aF23
aF30
aa(lp272
F1442130932
aF32.011699999999998
aF34.883299999999998
aF0
aF22
aF30
aa(lp273
F1442130935
aF32.011899999999997
aF34.883499999999998
aF0
aF22
aF30
aa(lp274
F1442130944
aF32.012799999999999
aF34.8842
aF0
aF23
aF39
aa(lp275
F1442130947
aF32.012999999999998
aF34.884399999999999
aF0
aF23
aF39
aa(lp276
F1442130950
aF32.013300000000001
aF34.884700000000002
aF0
aF24
aF43
aa(lp277
F1442130956
aF32.013599999999997
aF34.885199999999998
aF0
aF20
aF47
aa(lp278
F1442130965
aF32.014000000000003
aF34.885800000000003
aF0
aF19
aF53
aa(lp279
F1442130968
aF32.014299999999999
aF34.886200000000002
aF0
aF20
aF59
aa(lp280
F1442130971
aF32.014400000000002
aF34.886600000000001
aF0
aF21
aF61
aa(lp281
F1442130977
aF32.014600000000002
aF34.887
aF0
aF21
aF64
aa(lp282
F1442130983
aF32.014800000000001
aF34.887799999999999
aF0
aF22
aF73
aa(lp283
F1442130989
aF32.015000000000001
aF34.888599999999997
aF0
aF18
aF78
aa(lp284
F1442130993
aF32.015000000000001
aF34.888800000000003
aF0
aF16
aF78
aa(lp285
F1442130995
aF32.015099999999997
aF34.889099999999999
aF0
aF15
aF81
aa(lp286
F1442131004
aF32.0152
aF34.889699999999998
aF0
aF27
aF81
aa(lp287
F1442131010
aF32.0152
aF34.890099999999997
aF0
aF29
aF78
aa(lp288
F1442131017
aF32.015300000000003
aF34.8904
aF0
aF24
aF78
aa(lp289
F1442131020
aF32.015300000000003
aF34.890500000000003
aF0
aF20
aF78
aa(lp290
F1442131023
aF32.015300000000003
aF34.890599999999999
aF0
aF20
aF81
aa(lp291
F1442131032
aF32.0154
aF34.891100000000002
aF0
aF23
aF81
aa(lp292
F1442131035
aF32.0154
aF34.891199999999998
aF0
aF23
aF78
aa(lp293
F1442131041
aF32.015500000000003
aF34.891500000000001
aF0
aF21
aF56
aa(lp294
F1442131044
aF32.015599999999999
aF34.891599999999997
aF0
aF20
aF42
aa(lp295
F1442131047
aF32.015700000000002
aF34.891599999999997
aF0
aF19
aF25
aa(lp296
F1442131056
aF32.015999999999998
aF34.891599999999997
aF0
aF21
aF345
aa(lp297
F1442131059
aF32.016100000000002
aF34.891599999999997
aF0
aF20
aF351
aa(lp298
F1442131065
aF32.016300000000001
aF34.891500000000001
aF0
aF16
aF351
aa(lp299
F1442131071
aF32.016399999999997
aF34.891500000000001
aF0
aF16
aF348
aa(lp300
F1442131077
aF32.016500000000001
aF34.891500000000001
aF0
aF2
aF348
aa(lp301
F1442131080
aF32.016500000000001
aF34.891500000000001
aF0
aF0
aF224
aa(lp302
F1442131083
aF32.016500000000001
aF34.891500000000001
aF0
aF0
aF224
aa(lp303
F1442131090
aF32.016500000000001
aF34.891500000000001
aF0
aF0
aF224
aa(lp304
F1442131098
aF32.016500000000001
aF34.891500000000001
aF0
aF0
aF224
aa(lp305
F1442131104
aF32.016500000000001
aF34.891500000000001
aF0
aF0
aF43
aa(lp306
F1442131110
aF32.016500000000001
aF34.891500000000001
aF0
aF0
aF224
aa(lp307
F1442131114
aF32.016500000000001
aF34.891500000000001
aF0
aF0
aF43
aa(lp308
F1442131122
aF32.016500000000001
aF34.891500000000001
aF0
aF0
aF224
aa(lp309
F1442131129
aF32.016500000000001
aF34.891500000000001
aF0
aF0
aF224
aa(lp310
F1442131138
aF32.016500000000001
aF34.891500000000001
aF0
aF0
aF224
aa(lp311
F1442131144
aF32.016500000000001
aF34.891500000000001
aF0
aF0
aF224
aa(lp312
F1442131150
aF32.016500000000001
aF34.891500000000001
aF0
aF0
aF43
aa(lp313
F1442131153
aF32.016500000000001
aF34.891500000000001
aF0
aF0
aF117
aa(lp314
F1442131162
aF32.016500000000001
aF34.891500000000001
aF0
aF0
aF298
aa(lp315
F1442131169
aF32.016500000000001
aF34.891500000000001
aF0
aF0
aF298
aa(lp316
F1442131174
aF32.016500000000001
aF34.891500000000001
aF0
aF0
aF117
aa(lp317
F1442131177
aF32.016500000000001
aF34.891500000000001
aF0
aF0
aF298
aa(lp318
F1442131183
aF32.016500000000001
aF34.891500000000001
aF0
aF0
aF117
aa(lp319
F1442131192
aF32.016500000000001
aF34.891500000000001
aF0
aF0
aF298
aa(lp320
F1442131207
aF32.016500000000001
aF34.891500000000001
aF0
aF0
aF335
aa(lp321
F1442131234
aF32.016599999999997
aF34.891500000000001
aF0
aF9
aF348
aa(lp322
F1442131237
aF32.016599999999997
aF34.891500000000001
aF0
aF11
aF348
aa(lp323
F1442131240
aF32.0167
aF34.891500000000001
aF0
aF13
aF351
aa(lp324
F1442131249
aF32.0169
aF34.891399999999997
aF0
aF15
aF351
aa(lp325
F1442131255
aF32.017000000000003
aF34.891399999999997
aF0
aF17
aF351
aa(lp326
F1442131261
aF32.017200000000003
aF34.891399999999997
aF0
aF16
aF351
aa(lp327
F1442131265
aF32.017299999999999
aF34.891399999999997
aF0
aF16
aF351
aa(lp328
F1442131268
aF32.017299999999999
aF34.891300000000001
aF0
aF16
aF351
aa(lp329
F1442131277
aF32.017499999999998
aF34.891199999999998
aF0
aF15
aF317
aa(lp330
F1442131280
aF32.017499999999998
aF34.891100000000002
aF0
aF16
aF295
aa(lp331
F1442131283
aF32.017499999999998
aF34.890999999999998
aF0
aF15
aF272
aa(lp332
F1442131292
aF32.017400000000002
aF34.890900000000002
aF0
aF0
aF117
aa(lp333
F1442131295
aF32.017400000000002
aF34.890900000000002
aF0
aF0
aF43
aa(lp334
F1442131301
aF32.017400000000002
aF34.890900000000002
aF0
aF0
aF43
aa(lp335
F1442131307
aF32.017400000000002
aF34.890900000000002
aF0
aF0
aF43
aa(lp336
F1442131316
aF32.017400000000002
aF34.890900000000002
aF0
aF0
aF224
aa(lp337
F1442131325
aF32.017400000000002
aF34.890900000000002
aF0
aF0
aF224
aa(lp338
F1442131331
aF32.017400000000002
aF34.890900000000002
aF0
aF0
aF43
aa(lp339
F1442131340
aF32.017400000000002
aF34.890900000000002
aF0
aF2
aF261
aa(lp340
F1442131347
aF32.017400000000002
aF34.890700000000002
aF0
aF17
aF261
aa(lp341
F1442131352
aF32.017299999999999
aF34.889899999999997
aF0
aF37
aF258
aa(lp342
F1442131355
aF32.017200000000003
aF34.889200000000002
aF0
aF48
aF258
aa(lp343
F1442131362
aF32.0169
aF34.8872
aF0
aF76
aF258
aa(lp344
F1442131367
aF32.016300000000001
aF34.883699999999997
aF0
aF105
aF258
aa(lp345
F1442131373
aF32.015700000000002
aF34.879600000000003
aF0
aF130
aF258
aa(lp346
F1442131379
aF32.014899999999997
aF34.874499999999998
aF0
aF150
aF261
aa(lp347
F1442131385
aF32.014299999999999
aF34.869599999999998
aF300
aF157
aF261
aa(lp348
F1442131388
aF32.0139
aF34.866999999999997
aF425
aF156
aF260
aa(lp349
F1442131391
aF32.013500000000001
aF34.8645
aF525
aF155
aF259
aa(lp350
F1442131397
aF32.012700000000002
aF34.859499999999997
aF775
aF154
aF259
aa(lp351
F1442131404
aF32.011699999999998
aF34.854399999999998
aF1075
aF151
aF255
aa(lp352
F1442131406
aF32.011099999999999
aF34.8521
aF1175
aF150
aF254
aa(lp353
F1442131412
aF32.009700000000002
aF34.8474
aF1400
aF151
aF251
aa(lp354
F1442131416
aF32.009099999999997
aF34.845199999999998
aF1475
aF153
aF250
aa(lp355
F1442131419
aF32.008299999999998
aF34.842700000000001
aF1575
aF155
aF249
aa(lp356
F1442131428
aF32.006
aF34.834800000000001
aF1775
aF168
aF252
aa(lp357
F1442131431
aF32.005400000000002
aF34.832299999999996
aF1825
aF171
aF254
aa(lp358
F1442131437
aF32.004199999999997
aF34.826300000000003
aF1975
aF180
aF257
aa(lp359
F1442131443
aF32.003100000000003
aF34.8202
aF2100
aF188
aF258
aa(lp360
F1442131449
aF32.002000000000002
aF34.814
aF2225
aF197
aF258
aa(lp361
F1442131455
aF32.000799999999998
aF34.807400000000001
aF2325
aF206
aF258
aa(lp362
F1442131461
aF31.999600000000001
aF34.800699999999999
aF2400
aF216
aF258
aa(lp363
F1442131467
aF31.9983
aF34.793300000000002
aF2475
aF227
aF258
aa(lp364
F1442131473
aF31.9971
aF34.786799999999999
aF2650
aF237
aF257
aa(lp365
F1442131476
aF31.996200000000002
aF34.7819
aF2725
aF241
aF257
aa(lp366
F1442131479
aF31.9955
aF34.777999999999999
aF2800
aF245
aF257
aa(lp367
F1442131488
aF31.994
aF34.765500000000003
aF3050
aF257
aF265
aa(lp368
F1442131508
aF31.999500000000001
aF34.738300000000002
aF3925
aF265
aF292
aa(lp369
F1442131518
aF32.003
aF34.728099999999998
aF4300
aF266
aF293
aa(lp370
F1442131529
aF32.008200000000002
aF34.713099999999997
aF4750
aF272
aF292
aa(lp371
F1442131536
aF32.011699999999998
aF34.700800000000001
aF5150
aF275
aF286
aa(lp372
F1442131542
aF32.014299999999999
aF34.690300000000001
aF5500
aF277
aF285
aa(lp373
F1442131545
aF32.015000000000001
aF34.687100000000001
aF5625
aF277
aF285
aa(lp374
F1442131554
aF32.018799999999999
aF34.671999999999997
aF6125
aF280
aF286
aa(lp375
F1442131557
aF32.0199
aF34.6676
aF6250
aF280
aF286
aa(lp376
F1442131560
aF32.020899999999997
aF34.663499999999999
aF6400
aF280
aF286
aa(lp377
F1442131570
aF32.0244
aF34.6496
aF6925
aF279
aF285
aa(lp378
F1442131573
aF32.024999999999999
aF34.646700000000003
aF7025
aF278
aF284
aa(lp379
F1442131579
aF32.026600000000002
aF34.636200000000002
aF7350
aF277
aF278
aa(lp380
F1442131585
aF32.027200000000001
aF34.6282
aF7600
aF275
aF274
aa(lp381
F1442131591
aF32.027799999999999
aF34.619700000000002
aF7750
aF274
aF273
aa(lp382
F1442131601
aF32.028599999999997
aF34.6036
aF7975
aF273
aF273
aa(lp383
F1442131604
aF32.028799999999997
aF34.600900000000003
aF8000
aF273
aF273
aa(lp384
F1442131611
aF32.029400000000003
aF34.589100000000002
aF8100
aF273
aF273
aa(lp385
F1442131614
aF32.029600000000002
aF34.584600000000002
aF8175
aF272
aF273
aa(lp386
F1442131623
aF32.0304
aF34.5702
aF8500
aF275
aF273
aa(lp387
F1442131626
aF32.0306
aF34.5655
aF8600
aF277
aF273
aa(lp388
F1442131629
aF32.030799999999999
aF34.561
aF8725
aF279
aF273
aa(lp389
F1442131636
aF32.031199999999998
aF34.553400000000003
aF8925
aF281
aF273
aa(lp390
F1442131652
aF32.032699999999998
aF34.525399999999998
aF9700
aF286
aF273
aa(lp391
F1442131655
aF32.032899999999998
aF34.523099999999999
aF9775
aF286
aF273
aa(lp392
F1442131661
aF32.033900000000003
aF34.511499999999998
aF10100
aF289
aF276
aa(lp393
F1442131668
aF32.036000000000001
aF34.501800000000003
aF10350
aF292
aF284
aa(lp394
F1442131671
aF32.037500000000001
aF34.497
aF10425
aF298
aF290
aa(lp395
F1442131674
aF32.039400000000001
aF34.492100000000001
aF10500
aF301
aF293
aa(lp396
F1442131683
aF32.0473
aF34.479199999999999
aF10625
aF319
aF310
aa(lp397
F1442131686
aF32.050600000000003
aF34.4756
aF10675
aF324
aF316
aa(lp398
F1442131695
aF32.062100000000001
aF34.466999999999999
aF10800
aF339
aF332
aa(lp399
F1442131698
aF32.066400000000002
aF34.4649
aF10850
aF344
aF337
aa(lp400
F1442131708
aF32.080800000000004
aF34.461300000000001
aF11000
aF355
aF350
aa(lp401
F1442131716
aF32.096600000000002
aF34.460000000000001
aF11200
aF367
aF358
aa(lp402
F1442131723
aF32.102200000000003
aF34.460000000000001
aF11275
aF370
aF359
aa(lp403
F1442131734
aF32.104700000000001
aF34.460000000000001
aF11300
aF372
aF359
aa(lp404
F1442131757
aF32.167000000000002
aF34.460599999999999
aF11875
aF408
aF359
aa(lp405
F1442131758
aF32.173499999999997
aF34.4604
aF11975
aF409
aF359
aa(lp406
F1442131765
aF32.184800000000003
aF34.4602
aF12150
aF412
aF359
aa(lp407
F1442131768
aF32.1905
aF34.460099999999997
aF12250
aF413
aF358
aa(lp408
F1442131771
aF32.196300000000001
aF34.459899999999998
aF12350
aF414
aF358
aa(lp409
F1442131777
aF32.207900000000002
aF34.459600000000002
aF12600
aF415
aF358
aa(lp410
F1442131783
aF32.219499999999996
aF34.459200000000003
aF12850
aF416
aF358
aa(lp411
F1442131789
aF32.2318
aF34.458799999999997
aF13125
aF416
aF358
aa(lp412
F1442131792
aF32.237200000000001
aF34.458599999999997
aF13250
aF417
aF358
aa(lp413
F1442131802
aF32.254300000000001
aF34.458100000000002
aF13600
aF417
aF358
aa(lp414
F1442131813
aF32.2744
aF34.457299999999996
aF14050
aF417
aF358
aa(lp415
F1442131816
aF32.2849
aF34.457000000000001
aF14300
aF418
aF358
aa(lp416
F1442131826
aF32.3003
aF34.456499999999998
aF14675
aF417
aF358
aa(lp417
F1442131828
aF32.306899999999999
aF34.456299999999999
aF14800
aF417
aF358
aa(lp418
F1442131837
aF32.325499999999998
aF34.455599999999997
aF15225
aF417
aF358
aa(lp419
F1442131840
aF32.332000000000001
aF34.455300000000001
aF15375
aF417
aF358
aa(lp420
F1442131844
aF32.337600000000002
aF34.455100000000002
aF15500
aF417
aF358
aa(lp421
F1442131853
aF32.354399999999998
aF34.454500000000003
aF15800
aF419
aF358
aa(lp422
F1442131856
aF32.3596
aF34.4544
aF15900
aF420
aF358
aa(lp423
F1442131865
aF32.378900000000002
aF34.453600000000002
aF16200
aF423
aF358
aa(lp424
F1442131868
aF32.384900000000002
aF34.453400000000002
aF16300
aF424
aF358
aa(lp425
F1442131871
aF32.390799999999999
aF34.453200000000002
aF16400
aF425
aF358
aa(lp426
F1442131881
aF32.408799999999999
aF34.452599999999997
aF16700
aF428
aF358
aa(lp427
F1442131886
aF32.420099999999998
aF34.452199999999998
aF16900
aF429
aF358
aa(lp428
F1442131890
aF32.423900000000003
aF34.452100000000002
aF16975
aF429
aF358
aa(lp429
F1442131892
aF32.430799999999998
aF34.451799999999999
aF17100
aF429
aF358
aa(lp430
F1442131898
aF32.4407
aF34.451500000000003
aF17275
aF430
aF358
aa(lp431
F1442131904
aF32.456699999999998
aF34.451000000000001
aF17575
aF431
aF358
aa(lp432
F1442131910
aF32.468899999999998
aF34.450499999999998
aF17800
aF432
aF358
aa(lp433
F1442131916
aF32.480699999999999
aF34.450200000000002
aF18000
aF433
aF358
aa(lp434
F1442131922
aF32.4893
aF34.4499
aF18150
aF435
aF358
aa(lp435
F1442131925
aF32.499600000000001
aF34.4495
aF18250
aF437
aF358
aa(lp436
F1442131928
aF32.502899999999997
aF34.449399999999997
aF18300
aF438
aF358
aa(lp437
F1442131937
aF32.522100000000002
aF34.448700000000002
aF18600
aF439
aF358
aa(lp438
F1442131944
aF32.537399999999998
aF34.4482
aF18800
aF442
aF358
aa(lp439
F1442131950
aF32.549199999999999
aF34.447800000000001
aF18975
aF444
aF358
aa(lp440
F1442131953
aF32.555900000000001
aF34.447499999999998
aF19075
aF444
aF358
aa(lp441
F1442131962
aF32.575000000000003
aF34.446899999999999
aF19425
aF445
aF358
aa(lp442
F1442131965
aF32.581600000000002
aF34.446599999999997
aF19500
aF446
aF358
aa(lp443
F1442131977
aF32.606499999999997
aF34.445799999999998
aF19775
aF451
aF358
aa(lp444
F1442131983
aF32.618400000000001
aF34.445399999999999
aF19875
aF453
aF358
aa(lp445
F1442131989
aF32.632100000000001
aF34.445
aF20000
aF456
aF358
aa(lp446
F1442131995
aF32.644500000000001
aF34.444600000000001
aF20175
aF457
aF358
aa(lp447
F1442131998
aF32.651200000000003
aF34.444299999999998
aF20275
aF457
aF358
aa(lp448
F1442132001
aF32.6556
aF34.444200000000002
aF20400
aF457
aF358
aa(lp449
F1442132007
aF32.670400000000001
aF34.4437
aF20650
aF456
aF358
aa(lp450
F1442132010
aF32.6768
aF34.4435
aF20775
aF455
aF358
aa(lp451
F1442132019
aF32.695700000000002
aF34.442900000000002
aF21100
aF455
aF358
aa(lp452
F1442132022
aF32.702100000000002
aF34.442599999999999
aF21200
aF455
aF358
aa(lp453
F1442132031
aF32.721200000000003
aF34.442
aF21400
aF457
aF358
aa(lp454
F1442132037
aF32.734000000000002
aF34.441499999999998
aF21525
aF459
aF358
aa(lp455
F1442132042
aF32.7393
aF34.441400000000002
aF21575
aF460
aF358
aa(lp456
F1442132050
aF32.760100000000001
aF34.4407
aF21825
aF462
aF358
aa(lp457
F1442132053
aF32.766599999999997
aF34.440399999999997
aF21925
aF462
aF358
aa(lp458
F1442132062
aF32.785800000000002
aF34.439799999999998
aF22275
aF460
aF358
aa(lp459
F1442132071
aF32.805399999999999
aF34.4392
aF22625
aF459
aF358
aa(lp460
F1442132074
aF32.811199999999999
aF34.438899999999997
aF22675
aF459
aF358
aa(lp461
F1442132077
aF32.818399999999997
aF34.438699999999997
aF22775
aF460
aF358
aa(lp462
F1442132083
aF32.831400000000002
aF34.438200000000002
aF22900
aF461
aF358
aa(lp463
F1442132089
aF32.844000000000001
aF34.437800000000003
aF23025
aF463
aF358
aa(lp464
F1442132095
aF32.856099999999998
aF34.437399999999997
aF23150
aF464
aF358
aa(lp465
F1442132098
aF32.863399999999999
aF34.437100000000001
aF23225
aF464
aF358
aa(lp466
F1442132107
aF32.883099999999999
aF34.436300000000003
aF23450
aF465
aF357
aa(lp467
F1442132110
aF32.889600000000002
aF34.436
aF23550
aF464
aF357
aa(lp468
F1442132113
aF32.894300000000001
aF34.435600000000001
aF23650
aF464
aF356
aa(lp469
F1442132119
aF32.907800000000002
aF34.4345
aF23825
aF463
aF355
aa(lp470
F1442132125
aF32.921900000000001
aF34.432899999999997
aF24150
aF460
aF354
aa(lp471
F1442132128
aF32.9251
aF34.432499999999997
aF24250
aF459
aF354
aa(lp472
F1442132131
aF32.935000000000002
aF34.431199999999997
aF24550
aF454
aF353
aa(lp473
F1442132137
aF32.942799999999998
aF34.430100000000003
aF24750
aF451
aF353
aa(lp474
F1442132144
aF32.960700000000003
aF34.427700000000002
aF25200
aF446
aF353
aa(lp475
F1442132147
aF32.961799999999997
aF34.427599999999998
aF25275
aF445
aF353
aa(lp476
F1442132153
aF32.978900000000003
aF34.4253
aF25575
aF443
aF353
aa(lp477
F1442132156
aF32.985100000000003
aF34.424500000000002
aF25650
aF443
aF353
aa(lp478
F1442132165
aF33.002400000000002
aF34.422199999999997
aF25950
aF443
aF353
aa(lp479
F1442132171
aF33.014600000000002
aF34.4206
aF26175
aF442
aF353
aa(lp480
F1442132174
aF33.020800000000001
aF34.419699999999999
aF26275
aF441
aF353
aa(lp481
F1442132183
aF33.037799999999997
aF34.417499999999997
aF26575
aF439
aF353
aa(lp482
F1442132189
aF33.052599999999998
aF34.415399999999998
aF26875
aF437
aF353
aa(lp483
F1442132200
aF33.0749
aF34.412500000000001
aF27325
aF434
aF353
aa(lp484
F1442132209
aF33.090899999999998
aF34.410400000000003
aF27675
aF432
aF353
aa(lp485
F1442132212
aF33.098700000000001
aF34.409300000000002
aF27800
aF431
aF353
aa(lp486
F1442132215
aF33.104300000000002
aF34.4086
aF27925
aF430
aF353
aa(lp487
F1442132221
aF33.116500000000002
aF34.4069
aF28175
aF428
aF353
aa(lp488
F1442132228
aF33.127899999999997
aF34.4054
aF28425
aF426
aF353
aa(lp489
F1442132233
aF33.140099999999997
aF34.403700000000001
aF28675
aF424
aF353
aa(lp490
F1442132237
aF33.146000000000001
aF34.402900000000002
aF28800
aF423
aF353
aa(lp491
F1442132241
aF33.151899999999998
aF34.402200000000001
aF28900
aF423
aF353
aa(lp492
F1442132243
aF33.158000000000001
aF34.401299999999999
aF29000
aF422
aF353
aa(lp493
F1442132249
aF33.1691
aF34.399799999999999
aF29150
aF422
aF353
aa(lp494
F1442132257
aF33.185299999999998
aF34.397599999999997
aF29375
aF424
aF353
aa(lp495
F1442132260
aF33.194200000000002
aF34.3964
aF29425
aF425
aF353
aa(lp496
F1442132264
aF33.199800000000003
aF34.395699999999998
aF29500
aF425
aF353
aa(lp497
F1442132267
aF33.2059
aF34.394799999999996
aF29550
aF426
aF353
aa(lp498
F1442132277
aF33.223799999999997
aF34.392400000000002
aF29675
aF429
aF353
aa(lp499
F1442132285
aF33.241599999999998
aF34.390000000000001
aF29775
aF433
aF353
aa(lp500
F1442132288
aF33.247900000000001
aF34.389099999999999
aF29800
aF434
aF353
aa(lp501
F1442132297
aF33.265799999999999
aF34.386699999999998
aF29900
aF438
aF353
aa(lp502
F1442132300
aF33.271999999999998
aF34.385899999999999
aF29925
aF440
aF353
aa(lp503
F1442132303
aF33.277799999999999
aF34.385100000000001
aF29950
aF441
aF353
aa(lp504
F1442132313
aF33.2973
aF34.382399999999997
aF30025
aF446
aF353
aa(lp505
F1442132316
aF33.304000000000002
aF34.381500000000003
aF30050
aF447
aF353
aa(lp506
F1442132325
aF33.3232
aF34.378999999999998
aF30125
aF451
aF353
aa(lp507
F1442132327
aF33.327500000000001
aF34.378399999999999
aF30125
aF452
aF353
aa(lp508
F1442132333
aF33.3416
aF34.3765
aF30175
aF456
aF353
aa(lp509
F1442132339
aF33.354399999999998
aF34.374600000000001
aF30225
aF458
aF353
aa(lp510
F1442132345
aF33.366500000000002
aF34.373100000000001
aF30275
aF460
aF353
aa(lp511
F1442132353
aF33.380800000000001
aF34.371200000000002
aF30325
aF462
aF353
aa(lp512
F1442132365
aF33.404600000000002
aF34.368000000000002
aF30425
aF466
aF353
aa(lp513
F1442132368
aF33.413200000000003
aF34.366799999999998
aF30450
aF468
aF353
aa(lp514
F1442132374
aF33.424500000000002
aF34.365299999999998
aF30500
aF469
aF353
aa(lp515
F1442132380
aF33.441499999999998
aF34.363
aF30575
aF472
aF353
aa(lp516
F1442132389
aF33.459699999999998
aF34.360500000000002
aF30650
aF474
aF353
aa(lp517
F1442132392
aF33.4679
aF34.359400000000001
aF30700
aF474
aF353
aa(lp518
F1442132398
aF33.480499999999999
aF34.357700000000001
aF30800
aF476
aF353
aa(lp519
F1442132404
aF33.493499999999997
aF34.355899999999998
aF30925
aF476
aF353
aa(lp520
F1442132410
aF33.506399999999999
aF34.354100000000003
aF31050
aF476
aF353
aa(lp521
F1442132416
aF33.5197
aF34.3523
aF31175
aF475
aF353
aa(lp522
F1442132419
aF33.5261
aF34.351399999999998
aF31250
aF475
aF353
aa(lp523
F1442132425
aF33.539200000000001
aF34.349600000000002
aF31375
aF474
aF353
aa(lp524
F1442132432
aF33.552199999999999
aF34.347900000000003
aF31500
aF474
aF353
aa(lp525
F1442132437
aF33.568600000000004
aF34.345700000000001
aF31625
aF474
aF353
aa(lp526
F1442132443
aF33.579900000000002
aF34.344099999999997
aF31725
aF475
aF353
aa(lp527
F1442132449
aF33.591500000000003
aF34.342500000000001
aF31825
aF476
aF353
aa(lp528
F1442132453
aF33.600299999999997
aF34.3414
aF31875
aF476
aF353
aa(lp529
F1442132455
aF33.605899999999998
aF34.340600000000002
aF31900
aF476
aF353
aa(lp530
F1442132458
aF33.614100000000001
aF34.339399999999998
aF31950
aF477
aF353
aa(lp531
F1442132469
aF33.634
aF34.3367
aF32000
aF479
aF353
aa(lp532
F1442132477
aF33.651200000000003
aF34.334299999999999
aF32000
aF479
aF353
aa(lp533
F1442132487
aF33.677799999999998
aF34.3307
aF32025
aF478
aF353
aa(lp534
F1442132491
aF33.684600000000003
aF34.329799999999999
aF32000
aF478
aF353
aa(lp535
F1442132497
aF33.695999999999998
aF34.328299999999999
aF32000
aF478
aF353
aa(lp536
F1442132500
aF33.703899999999997
aF34.327199999999998
aF32000
aF478
aF353
aa(lp537
F1442132509
aF33.7241
aF34.324399999999997
aF32000
aF477
aF353
aa(lp538
F1442132512
aF33.731099999999998
aF34.323399999999999
aF32000
aF476
aF353
aa(lp539
F1442132515
aF33.7378
aF34.322499999999998
aF32000
aF475
aF353
aa(lp540
F1442132521
aF33.747199999999999
aF34.321199999999997
aF32000
aF474
aF353
aa(lp541
F1442132527
aF33.7622
aF34.319200000000002
aF32000
aF474
aF353
aa(lp542
F1442132536
aF33.783799999999999
aF34.316299999999998
aF32000
aF475
aF353
aa(lp543
F1442132539
aF33.789200000000001
aF34.3155
aF32000
aF475
aF353
aa(lp544
F1442132545
aF33.8003
aF34.314
aF32000
aF475
aF353
aa(lp545
F1442132551
aF33.815399999999997
aF34.311900000000001
aF32000
aF473
aF353
aa(lp546
F1442132557
aF33.826300000000003
aF34.310400000000001
aF32000
aF473
aF353
aa(lp547
F1442132563
aF33.840899999999998
aF34.308399999999999
aF32000
aF474
aF353
aa(lp548
F1442132572
aF33.8581
aF34.305999999999997
aF32000
aF475
aF353
aa(lp549
F1442132575
aF33.869599999999998
aF34.304499999999997
aF32000
aF475
aF353
aa(lp550
F1442132578
aF33.872
aF34.304099999999998
aF32000
aF475
aF353
aa(lp551
F1442132587
aF33.891500000000001
aF34.301400000000001
aF32000
aF475
aF353
aa(lp552
F1442132589
aF33.897799999999997
aF34.300600000000003
aF32000
aF474
aF353
aa(lp553
F1442132595
aF33.906599999999997
aF34.299399999999999
aF32000
aF474
aF353
aa(lp554
F1442132606
aF33.936100000000003
aF34.295299999999997
aF32000
aF474
aF353
aa(lp555
F1442132609
aF33.942599999999999
aF34.294499999999999
aF32000
aF474
aF353
aa(lp556
F1442132615
aF33.956600000000002
aF34.2926
aF32000
aF475
aF353
aa(lp557
F1442132618
aF33.962499999999999
aF34.291699999999999
aF32000
aF475
aF353
aa(lp558
F1442132621
aF33.969000000000001
aF34.290799999999997
aF32000
aF475
aF353
aa(lp559
F1442132630
aF33.988900000000001
aF34.2881
aF32000
aF474
aF353
aa(lp560
F1442132633
aF33.996099999999998
aF34.287100000000002
aF32000
aF474
aF353
aa(lp561
F1442132645
aF34.022199999999998
aF34.2834
aF31975
aF475
aF353
aa(lp562
F1442132651
aF34.034999999999997
aF34.281599999999997
aF31975
aF475
aF353
aa(lp563
F1442132657
aF34.046300000000002
aF34.280000000000001
aF31975
aF476
aF353
aa(lp564
F1442132660
aF34.0548
aF34.2789
aF31975
aF475
aF353
aa(lp565
F1442132669
aF34.075499999999998
aF34.2761
aF31975
aF474
aF353
aa(lp566
F1442132673
aF34.082299999999996
aF34.275100000000002
aF32000
aF474
aF353
aa(lp567
F1442132678
aF34.095300000000002
aF34.273400000000002
aF32000
aF474
aF353
aa(lp568
F1442132681
aF34.101799999999997
aF34.272500000000001
aF32000
aF474
aF353
aa(lp569
F1442132690
aF34.121899999999997
aF34.269799999999996
aF32000
aF475
aF353
aa(lp570
F1442132694
aF34.128700000000002
aF34.268799999999999
aF32000
aF476
aF353
aa(lp571
F1442132696
aF34.135399999999997
aF34.267899999999997
aF32000
aF476
aF353
aa(lp572
F1442132702
aF34.148299999999999
aF34.266100000000002
aF31975
aF476
aF353
aa(lp573
F1442132709
aF34.161799999999999
aF34.264200000000002
aF31975
aF476
aF353
aa(lp574
F1442132715
aF34.174900000000001
aF34.2624
aF32000
aF476
aF353
aa(lp575
F1442132718
aF34.180900000000001
aF34.261600000000001
aF32000
aF477
aF353
aa(lp576
F1442132727
aF34.200899999999997
aF34.258800000000001
aF32000
aF477
aF353
aa(lp577
F1442132730
aF34.208300000000001
aF34.257800000000003
aF32000
aF477
aF353
aa(lp578
F1442132733
aF34.213799999999999
aF34.256999999999998
aF31975
aF478
aF353
aa(lp579
F1442132739
aF34.2273
aF34.255099999999999
aF32000
aF478
aF353
aa(lp580
F1442132742
aF34.234699999999997
aF34.254100000000001
aF31975
aF478
aF353
aa(lp581
F1442132749
aF34.2483
aF34.252200000000002
aF31975
aF478
aF353
aa(lp582
F1442132754
aF34.261600000000001
aF34.250300000000003
aF31975
aF478
aF353
aa(lp583
F1442132757
aF34.267600000000002
aF34.249499999999998
aF31975
aF478
aF353
aa(lp584
F1442132763
aF34.281300000000002
aF34.247599999999998
aF32000
aF479
aF353
aa(lp585
F1442132769
aF34.292499999999997
aF34.246000000000002
aF32000
aF479
aF353
aa(lp586
F1442132778
aF34.314700000000002
aF34.242899999999999
aF32000
aF479
aF353
aa(lp587
F1442132781
aF34.321599999999997
aF34.241999999999997
aF32000
aF478
aF353
aa(lp588
F1442132784
aF34.327300000000001
aF34.241199999999999
aF32000
aF478
aF353
aa(lp589
F1442132790
aF34.341099999999997
aF34.2393
aF32025
aF478
aF353
aa(lp590
F1442132799
aF34.361199999999997
aF34.236499999999999
aF32025
aF478
aF353
aa(lp591
F1442132803
aF34.367800000000003
aF34.235599999999998
aF32025
aF477
aF353
aa(lp592
F1442132809
aF34.3812
aF34.233699999999999
aF32025
aF477
aF353
aa(lp593
F1442132815
aF34.393799999999999
aF34.231999999999999
aF32025
aF477
aF353
aa(lp594
F1442132821
aF34.407899999999998
aF34.229999999999997
aF32025
aF477
aF353
aa(lp595
F1442132825
aF34.4146
aF34.229100000000003
aF32025
aF477
aF353
aa(lp596
F1442132831
aF34.427300000000002
aF34.2273
aF32025
aF477
aF353
aa(lp597
F1442132839
aF34.447699999999998
aF34.224499999999999
aF32025
aF477
aF353
aa(lp598
F1442132842
aF34.4542
aF34.223599999999998
aF32025
aF477
aF353
aa(lp599
F1442132845
aF34.4604
aF34.222700000000003
aF32025
aF477
aF353
aa(lp600
F1442132851
aF34.473599999999998
aF34.220999999999997
aF32000
aF477
aF353
aa(lp601
F1442132854
aF34.4801
aF34.220100000000002
aF32000
aF477
aF353
aa(lp602
F1442132860
aF34.494100000000003
aF34.2181
aF32000
aF477
aF353
aa(lp603
F1442132866
aF34.5075
aF34.216200000000001
aF32000
aF477
aF353
aa(lp604
F1442132869
aF34.513800000000003
aF34.215400000000002
aF32000
aF477
aF353
aa(lp605
F1442132878
aF34.534100000000002
aF34.212499999999999
aF32000
aF477
aF353
aa(lp606
F1442132881
aF34.538499999999999
aF34.2119
aF32000
aF477
aF353
aa(lp607
F1442132891
aF34.560099999999998
aF34.208799999999997
aF32000
aF477
aF353
aa(lp608
F1442132893
aF34.567100000000003
aF34.207900000000002
aF32000
aF477
aF353
aa(lp609
F1442132897
aF34.573700000000002
aF34.207000000000001
aF32000
aF477
aF353
aa(lp610
F1442132902
aF34.586399999999998
aF34.205199999999998
aF32000
aF477
aF353
aa(lp611
F1442132908
aF34.597000000000001
aF34.203699999999998
aF32000
aF477
aF353
aa(lp612
F1442132915
aF34.608499999999999
aF34.202100000000002
aF32000
aF477
aF353
aa(lp613
F1442132918
aF34.612699999999997
aF34.201500000000003
aF32000
aF477
aF353
aa(lp614
F1442132921
aF34.619
aF34.200600000000001
aF32000
aF477
aF353
aa(lp615
F1442132932
aF34.647799999999997
aF34.1967
aF32000
aF474
aF353
aa(lp616
F1442132936
aF34.660600000000002
aF34.194899999999997
aF32000
aF473
aF353
aa(lp617
F1442132945
aF34.679000000000002
aF34.192300000000003
aF32000
aF473
aF353
aa(lp618
F1442132956
aF34.700699999999998
aF34.189300000000003
aF32000
aF473
aF353
aa(lp619
F1442132958
aF34.707799999999999
aF34.188299999999998
aF32000
aF473
aF353
aa(lp620
F1442132964
aF34.721499999999999
aF34.186399999999999
aF32000
aF473
aF353
aa(lp621
F1442132967
aF34.727899999999998
aF34.185499999999998
aF32000
aF473
aF353
aa(lp622
F1442132971
aF34.7346
aF34.1845
aF32000
aF473
aF353
aa(lp623
F1442132974
aF34.740499999999997
aF34.183700000000002
aF32000
aF474
aF353
aa(lp624
F1442132977
aF34.749099999999999
aF34.182499999999997
aF32000
aF474
aF353
aa(lp625
F1442132983
aF34.7624
aF34.180599999999998
aF32000
aF475
aF353
aa(lp626
F1442132990
aF34.775199999999998
aF34.178800000000003
aF32000
aF475
aF353
aa(lp627
F1442132996
aF34.788499999999999
aF34.177
aF32000
aF476
aF353
aa(lp628
F1442132999
aF34.792900000000003
aF34.176299999999998
aF31975
aF476
aF353
aa(lp629
F1442133005
aF34.808500000000002
aF34.174199999999999
aF32000
aF475
aF353
aa(lp630
F1442133012
aF34.819400000000002
aF34.172600000000003
aF32000
aF475
aF353
aa(lp631
F1442133017
aF34.835900000000002
aF34.170299999999997
aF32000
aF474
aF353
aa(lp632
F1442133020
aF34.843299999999999
aF34.1693
aF32000
aF474
aF353
aa(lp633
F1442133023
aF34.849800000000002
aF34.168399999999998
aF32000
aF474
aF353
aa(lp634
F1442133029
aF34.863300000000002
aF34.166499999999999
aF32000
aF474
aF353
aa(lp635
F1442133033
aF34.869999999999997
aF34.165500000000002
aF32000
aF473
aF353
aa(lp636
F1442133036
aF34.8765
aF34.1646
aF32000
aF473
aF353
aa(lp637
F1442133044
aF34.896099999999997
aF34.161900000000003
aF32000
aF472
aF353
aa(lp638
F1442133049
aF34.903500000000001
aF34.160800000000002
aF32000
aF472
aF353
aa(lp639
F1442133060
aF34.927900000000001
aF34.157400000000003
aF32000
aF471
aF353
aa(lp640
F1442133069
aF34.949100000000001
aF34.154299999999999
aF32000
aF470
aF353
aa(lp641
F1442133075
aF34.953600000000002
aF34.153599999999997
aF32000
aF470
aF353
aa(lp642
F1442133086
aF34.982799999999997
aF34.1494
aF32000
aF469
aF353
aa(lp643
F1442133095
aF35.002899999999997
aF34.146500000000003
aF32000
aF469
aF353
aa(lp644
F1442133101
aF35.015799999999999
aF34.1447
aF32000
aF468
aF353
aa(lp645
F1442133104
aF35.021900000000002
aF34.143799999999999
aF32000
aF468
aF353
aa(lp646
F1442133107
aF35.030299999999997
aF34.142600000000002
aF32000
aF468
aF353
aa(lp647
F1442133113
aF35.043500000000002
aF34.140799999999999
aF32000
aF468
aF353
aa(lp648
F1442133125
aF35.069400000000002
aF34.137099999999997
aF32000
aF469
aF353
aa(lp649
F1442133128
aF35.075499999999998
aF34.136200000000002
aF31975
aF469
aF353
aa(lp650
F1442133131
aF35.082099999999997
aF34.135300000000001
aF31975
aF469
aF353
aa(lp651
F1442133136
aF35.0976
aF34.133000000000003
aF31975
aF469
aF353
aa(lp652
F1442133143
aF35.110799999999998
aF34.1312
aF31975
aF469
aF353
aa(lp653
F1442133146
aF35.116900000000001
aF34.130299999999998
aF31950
aF469
aF353
aa(lp654
F1442133151
aF35.1235
aF34.129399999999997
aF31950
aF469
aF353
aa(lp655
F1442133156
aF35.136499999999998
aF34.127600000000001
aF31975
aF469
aF353
aa(lp656
F1442133169
aF35.164200000000001
aF34.123699999999999
aF31975
aF469
aF353
aa(lp657
F1442133173
aF35.170499999999997
aF34.122799999999998
aF31975
aF469
aF353
aa(lp658
F1442133175
aF35.179000000000002
aF34.121600000000001
aF31975
aF469
aF353
aa(lp659
F1442133181
aF35.1875
aF34.1205
aF31975
aF469
aF353
aa(lp660
F1442133187
aF35.205100000000002
aF34.117899999999999
aF31975
aF468
aF353
aa(lp661
F1442133194
aF35.217700000000001
aF34.116100000000003
aF32000
aF469
aF353
aa(lp662
F1442133200
aF35.226300000000002
aF34.115000000000002
aF32000
aF469
aF353
aa(lp663
F1442133209
aF35.250700000000002
aF34.111499999999999
aF32000
aF469
aF353
aa(lp664
F1442133211
aF35.2575
aF34.110599999999998
aF32000
aF469
aF353
aa(lp665
F1442133220
aF35.278100000000002
aF34.107700000000001
aF31975
aF469
aF353
aa(lp666
F1442133223
aF35.284500000000001
aF34.1068
aF31975
aF469
aF353
aa(lp667
F1442133226
aF35.291200000000003
aF34.105899999999998
aF31975
aF469
aF353
aa(lp668
F1442133236
aF35.310099999999998
aF34.103200000000001
aF31975
aF471
aF353
aa(lp669
F1442133240
aF35.316699999999997
aF34.1023
aF31975
aF471
aF353
aa(lp670
F1442133250
aF35.338299999999997
aF34.099200000000003
aF31975
aF471
aF353
aa(lp671
F1442133261
aF35.363300000000002
aF34.095599999999997
aF31975
aF472
aF353
aa(lp672
F1442133264
aF35.369799999999998
aF34.094700000000003
aF31975
aF472
aF353
aa(lp673
F1442133267
aF35.376300000000001
aF34.093699999999998
aF31975
aF472
aF353
aa(lp674
F1442133273
aF35.389600000000002
aF34.091799999999999
aF31975
aF473
aF353
aa(lp675
F1442133285
aF35.412500000000001
aF34.088500000000003
aF32000
aF473
aF353
aa(lp676
F1442133289
aF35.421900000000001
aF34.087200000000003
aF32000
aF473
aF353
aa(lp677
F1442133297
aF35.441099999999999
aF34.084499999999998
aF32025
aF472
aF353
aa(lp678
F1442133305
aF35.461399999999998
aF34.081600000000002
aF32025
aF472
aF353
aa(lp679
F1442133313
aF35.474699999999999
aF34.079599999999999
aF32025
aF472
aF353
aa(lp680
F1442133316
aF35.481200000000001
aF34.078699999999998
aF32025
aF472
aF353
aa(lp681
F1442133321
aF35.492899999999999
aF34.077100000000002
aF32025
aF472
aF353
aa(lp682
F1442133332
aF35.515700000000002
aF34.073799999999999
aF32025
aF472
aF353
aa(lp683
F1442133339
aF35.531999999999996
aF34.071399999999997
aF32025
aF472
aF353
aa(lp684
F1442133353
aF35.561300000000003
aF34.067100000000003
aF32025
aF472
aF353
aa(lp685
F1442133359
aF35.575299999999999
aF34.065100000000001
aF32025
aF473
aF353
aa(lp686
F1442133371
aF35.601199999999999
aF34.061399999999999
aF32000
aF473
aF353
aa(lp687
F1442133377
aF35.614100000000001
aF34.0595
aF32000
aF473
aF353
aa(lp688
F1442133380
aF35.621000000000002
aF34.058599999999998
aF32000
aF473
aF353
aa(lp689
F1442133383
aF35.627400000000002
aF34.057699999999997
aF32000
aF473
aF353
aa(lp690
F1442133389
aF35.640300000000003
aF34.055900000000001
aF32025
aF473
aF353
aa(lp691
F1442133398
aF35.660200000000003
aF34.052999999999997
aF32000
aF474
aF353
aa(lp692
F1442133404
aF35.6723
aF34.051299999999998
aF32000
aF474
aF353
aa(lp693
F1442133407
aF35.676200000000001
aF34.050699999999999
aF32000
aF474
aF353
aa(lp694
F1442133418
aF35.703299999999999
aF34.046900000000001
aF32000
aF473
aF353
aa(lp695
F1442133421
aF35.709200000000003
aF34.045999999999999
aF32000
aF473
aF353
aa(lp696
F1442133427
aF35.720799999999997
aF34.0443
aF32025
aF473
aF353
aa(lp697
F1442133440
aF35.749899999999997
aF34.040100000000002
aF32025
aF473
aF353
aa(lp698
F1442133451
aF35.774999999999999
aF34.036499999999997
aF32025
aF473
aF353
aa(lp699
F1442133454
aF35.782600000000002
aF34.035400000000003
aF32025
aF473
aF353
aa(lp700
F1442133463
aF35.801299999999998
aF34.031799999999997
aF32025
aF472
aF349
aa(lp701
F1442133472
aF35.821300000000001
aF34.0261
aF32025
aF470
aF345
aa(lp702
F1442133480
aF35.837400000000002
aF34.0199
aF32025
aF468
aF341
aa(lp703
F1442133484
aF35.843699999999998
aF34.0169
aF32025
aF468
aF339
aa(lp704
F1442133487
aF35.849499999999999
aF34.014000000000003
aF32025
aF468
aF337
aa(lp705
F1442133496
aF35.868699999999997
aF34.002299999999998
aF32000
aF466
aF331
aa(lp706
F1442133499
aF35.870600000000003
aF34.000999999999998
aF32000
aF466
aF330
aa(lp707
F1442133508
aF35.890500000000003
aF33.985100000000003
aF32025
aF464
aF325
aa(lp708
F1442133512
aF35.895499999999998
aF33.980499999999999
aF32025
aF463
aF323
aa(lp709
F1442133515
aF35.902000000000001
aF33.9741
aF32025
aF462
aF320
aa(lp710
F1442133524
aF35.916499999999999
aF33.957700000000003
aF32025
aF461
aF315
aa(lp711
F1442133533
aF35.929499999999997
aF33.9405
aF32025
aF459
aF311
aa(lp712
F1442133536
aF35.933599999999998
aF33.934399999999997
aF32025
aF458
aF309
aa(lp713
F1442133542
aF35.941400000000002
aF33.921900000000001
aF32050
aF457
aF306
aa(lp714
F1442133554
aF35.954700000000003
aF33.895899999999997
aF32025
aF456
aF299
aa(lp715
F1442133557
aF35.958599999999997
aF33.886800000000001
aF32025
aF455
aF298
aa(lp716
F1442133570
aF35.968699999999998
aF33.858699999999999
aF32025
aF452
aF292
aa(lp717
F1442133582
aF35.978299999999997
aF33.829799999999999
aF32025
aF452
aF292
aa(lp718
F1442133585
aF35.980899999999998
aF33.821800000000003
aF32025
aF451
aF292
aa(lp719
F1442133595
aF35.988599999999998
aF33.798400000000001
aF32025
aF450
aF292
aa(lp720
F1442133604
aF35.994399999999999
aF33.780799999999999
aF32000
aF450
aF292
aa(lp721
F1442133607
aF35.997700000000002
aF33.770800000000001
aF32000
aF449
aF292
aa(lp722
F1442133616
aF36.005400000000002
aF33.747500000000002
aF32000
aF449
aF291
aa(lp723
F1442133630
aF36.016199999999998
aF33.714599999999997
aF31975
aF449
aF291
aa(lp724
F1442133641
aF36.024700000000003
aF33.688499999999998
aF31975
aF449
aF291
aa(lp725
F1442133648
aF36.030000000000001
aF33.6723
aF31975
aF449
aF291
aa(lp726
F1442133657
aF36.037199999999999
aF33.650399999999998
aF31975
aF449
aF291
aa(lp727
F1442133666
aF36.0443
aF33.628599999999999
aF31975
aF450
aF291
aa(lp728
F1442133672
aF36.048699999999997
aF33.614899999999999
aF31975
aF449
aF291
aa(lp729
F1442133681
aF36.055700000000002
aF33.593299999999999
aF31975
aF449
aF291
aa(lp730
F1442133690
aF36.063000000000002
aF33.570799999999998
aF31975
aF450
aF291
aa(lp731
F1442133693
aF36.065300000000001
aF33.563600000000001
aF31975
aF450
aF291
aa(lp732
F1442133696
aF36.067599999999999
aF33.556600000000003
aF31975
aF450
aF291
aa(lp733
F1442133705
aF36.074599999999997
aF33.5351
aF31975
aF450
aF291
aa(lp734
F1442133708
aF36.076999999999998
aF33.527700000000003
aF31975
aF450
aF291
aa(lp735
F1442133714
aF36.081600000000002
aF33.5137
aF31975
aF450
aF291
aa(lp736
F1442133720
aF36.086399999999998
aF33.498699999999999
aF31975
aF450
aF291
aa(lp737
F1442133732
aF36.093699999999998
aF33.476199999999999
aF32000
aF449
aF291
aa(lp738
F1442133747
aF36.106299999999997
aF33.436900000000001
aF32000
aF449
aF291
aa(lp739
F1442133749
aF36.108600000000003
aF33.429900000000004
aF32000
aF449
aF291
aa(lp740
F1442133755
aF36.113300000000002
aF33.415399999999998
aF32000
aF448
aF291
aa(lp741
F1442133763
aF36.1203
aF33.393799999999999
aF32000
aF448
aF291
aa(lp742
F1442133771
aF36.1252
aF33.378700000000002
aF32000
aF448
aF291
aa(lp743
F1442133783
aF36.1342
aF33.3506
aF32025
aF448
aF291
aa(lp744
F1442133792
aF36.141399999999997
aF33.328299999999999
aF32025
aF448
aF291
aa(lp745
F1442133795
aF36.142899999999997
aF33.323599999999999
aF32025
aF447
aF291
aa(lp746
F1442133798
aF36.146000000000001
aF33.313899999999997
aF32000
aF447
aF291
aa(lp747
F1442133804
aF36.149999999999999
aF33.301499999999997
aF32000
aF447
aF291
aa(lp748
F1442133807
aF36.152900000000002
aF33.292299999999997
aF32000
aF447
aF291
aa(lp749
F1442133816
aF36.1599
aF33.270499999999998
aF32000
aF447
aF291
aa(lp750
F1442133819
aF36.162100000000002
aF33.263800000000003
aF32000
aF447
aF291
aa(lp751
F1442133822
aF36.164099999999998
aF33.2577
aF32000
aF447
aF291
aa(lp752
F1442133836
aF36.174399999999999
aF33.225700000000003
aF32000
aF447
aF291
aa(lp753
F1442133839
aF36.177
aF33.217300000000002
aF32000
aF446
aF291
aa(lp754
F1442133842
aF36.179299999999998
aF33.2104
aF32000
aF446
aF291
aa(lp755
F1442133853
aF36.187899999999999
aF33.183399999999999
aF32000
aF445
aF291
aa(lp756
F1442133859
aF36.192700000000002
aF33.168300000000002
aF32000
aF445
aF291
aa(lp757
F1442133865
aF36.1967
aF33.155900000000003
aF32000
aF445
aF291
aa(lp758
F1442133871
aF36.201900000000002
aF33.139600000000002
aF32000
aF445
aF291
aa(lp759
F1442133886
aF36.210999999999999
aF33.111199999999997
aF32000
aF446
aF291
aa(lp760
F1442133894
aF36.218600000000002
aF33.087400000000002
aF32000
aF445
aF291
aa(lp761
F1442133905
aF36.227200000000003
aF33.060400000000001
aF32000
aF445
aF291
aa(lp762
F1442133907
aF36.229599999999998
aF33.053100000000001
aF32000
aF445
aF291
aa(lp763
F1442133917
aF36.236400000000003
aF33.031599999999997
aF32000
aF445
aF291
aa(lp764
F1442133923
aF36.240099999999998
aF33.020200000000003
aF32000
aF444
aF291
aa(lp765
F1442133931
aF36.247500000000002
aF32.996899999999997
aF32000
aF444
aF291
aa(lp766
F1442133946
aF36.258800000000001
aF32.961399999999998
aF32000
aF444
aF291
aa(lp767
F1442133949
aF36.261400000000002
aF32.953200000000002
aF32000
aF444
aF291
aa(lp768
F1442133954
aF36.265900000000002
aF32.939100000000003
aF32000
aF444
aF291
aa(lp769
F1442133962
aF36.269599999999997
aF32.927300000000002
aF32000
aF444
aF291
aa(lp770
F1442133966
aF36.274900000000002
aF32.910600000000002
aF32000
aF444
aF291
aa(lp771
F1442133975
aF36.2819
aF32.888800000000003
aF32000
aF444
aF291
aa(lp772
F1442133981
aF36.283099999999997
aF32.884900000000002
aF32000
aF444
aF291
aa(lp773
F1442133991
aF36.293300000000002
aF32.852699999999999
aF32000
aF444
aF291
aa(lp774
F1442134003
aF36.302100000000003
aF32.8249
aF32000
aF444
aF291
aa(lp775
F1442134007
aF36.303899999999999
aF32.819099999999999
aF32000
aF444
aF291
aa(lp776
F1442134010
aF36.305900000000001
aF32.812899999999999
aF32000
aF444
aF291
aa(lp777
F1442134019
aF36.312199999999997
aF32.792999999999999
aF31975
aF444
aF291
aa(lp778
F1442134021
aF36.316000000000003
aF32.781100000000002
aF31950
aF444
aF291
aa(lp779
F1442134030
aF36.322400000000002
aF32.761000000000003
aF31825
aF443
aF291
aa(lp780
F1442134034
aF36.324300000000001
aF32.754899999999999
aF31750
aF443
aF291
aa(lp781
F1442134038
aF36.326500000000003
aF32.747799999999998
aF31725
aF443
aF291
aa(lp782
F1442134046
aF36.3339
aF32.724299999999999
aF31575
aF442
aF291
aa(lp783
F1442134051
aF36.338000000000001
aF32.711100000000002
aF31500
aF441
aF291
aa(lp784
F1442134054
aF36.340299999999999
aF32.704099999999997
aF31475
aF441
aF291
aa(lp785
F1442134058
aF36.342799999999997
aF32.696100000000001
aF31400
aF441
aF291
aa(lp786
F1442134064
aF36.346699999999998
aF32.683700000000002
aF31325
aF442
aF291
aa(lp787
F1442134067
aF36.349400000000003
aF32.6751
aF31275
aF442
aF291
aa(lp788
F1442134069
aF36.351599999999998
aF32.667999999999999
aF31225
aF443
aF291
aa(lp789
F1442134075
aF36.356299999999997
aF32.652900000000002
aF31125
aF445
aF291
aa(lp790
F1442134081
aF36.360500000000002
aF32.639699999999998
aF31025
aF445
aF291
aa(lp791
F1442134087
aF36.365299999999998
aF32.624400000000001
aF30900
aF445
aF291
aa(lp792
F1442134090
aF36.367600000000003
aF32.617199999999997
aF30850
aF445
aF291
aa(lp793
F1442134099
aF36.374400000000001
aF32.595599999999997
aF30700
aF445
aF291
aa(lp794
F1442134102
aF36.375900000000001
aF32.590800000000002
aF30675
aF444
aF291
aa(lp795
F1442134111
aF36.383200000000002
aF32.5672
aF30525
aF445
aF291
aa(lp796
F1442134114
aF36.385599999999997
aF32.5595
aF30450
aF445
aF291
aa(lp797
F1442134124
aF36.392200000000003
aF32.538600000000002
aF30325
aF447
aF291
aa(lp798
F1442134126
aF36.394300000000001
aF32.531799999999997
aF30275
aF447
aF291
aa(lp799
F1442134132
aF36.399000000000001
aF32.516800000000003
aF30175
aF447
aF291
aa(lp800
F1442134139
aF36.403700000000001
aF32.502000000000002
aF30075
aF447
aF291
aa(lp801
F1442134144
aF36.407899999999998
aF32.488300000000002
aF29975
aF447
aF291
aa(lp802
F1442134148
aF36.409999999999997
aF32.481699999999996
aF29925
aF448
aF291
aa(lp803
F1442134150
aF36.412199999999999
aF32.474800000000002
aF29875
aF448
aF291
aa(lp804
F1442134160
aF36.419499999999999
aF32.451700000000002
aF29650
aF446
aF291
aa(lp805
F1442134167
aF36.423999999999999
aF32.4373
aF29450
aF444
aF291
aa(lp806
F1442134172
aF36.428400000000003
aF32.423200000000001
aF29175
aF443
aF291
aa(lp807
F1442134178
aF36.4328
aF32.408999999999999
aF28800
aF443
aF291
aa(lp808
F1442134182
aF36.435099999999998
aF32.401699999999998
aF28575
aF444
aF290
aa(lp809
F1442134187
aF36.439599999999999
aF32.387
aF28150
aF445
aF290
aa(lp810
F1442134196
aF36.445900000000002
aF32.366599999999998
aF27525
aF445
aF291
aa(lp811
F1442134199
aF36.448500000000003
aF32.358400000000003
aF27325
aF446
aF290
aa(lp812
F1442134202
aF36.450699999999998
aF32.351300000000002
aF27125
aF445
aF291
aa(lp813
F1442134208
aF36.455100000000002
aF32.3371
aF26725
aF445
aF291
aa(lp814
F1442134212
aF36.457299999999996
aF32.329900000000002
aF26475
aF445
aF291
aa(lp815
F1442134214
aF36.459699999999998
aF32.322299999999998
aF26225
aF445
aF291
aa(lp816
F1442134223
aF36.466299999999997
aF32.301099999999998
aF25600
aF447
aF291
aa(lp817
F1442134227
aF36.468499999999999
aF32.293900000000001
aF25400
aF447
aF291
aa(lp818
F1442134235
aF36.4754
aF32.271799999999999
aF24875
aF445
aF291
aa(lp819
F1442134238
aF36.4773
aF32.265700000000002
aF24725
aF445
aF291
aa(lp820
F1442134244
aF36.4816
aF32.2517
aF24350
aF444
aF290
aa(lp821
F1442134250
aF36.486600000000003
aF32.235799999999998
aF23850
aF444
aF290
aa(lp822
F1442134259
aF36.493000000000002
aF32.215000000000003
aF23275
aF444
aF291
aa(lp823
F1442134263
aF36.4953
aF32.207799999999999
aF23100
aF444
aF290
aa(lp824
F1442134268
aF36.499699999999997
aF32.193300000000001
aF22800
aF442
aF290
aa(lp825
F1442134271
aF36.502099999999999
aF32.185600000000001
aF22625
aF440
aF290
aa(lp826
F1442134274
aF36.503999999999998
aF32.179400000000001
aF22500
aF439
aF290
aa(lp827
F1442134277
aF36.506399999999999
aF32.171900000000001
aF22325
aF438
aF290
aa(lp828
F1442134283
aF36.5105
aF32.1584
aF22050
aF437
aF290
aa(lp829
F1442134287
aF36.512700000000002
aF32.151299999999999
aF21900
aF436
aF290
aa(lp830
F1442134292
aF36.517099999999999
aF32.136899999999997
aF21575
aF434
aF290
aa(lp831
F1442134298
aF36.521500000000003
aF32.122500000000002
aF21275
aF432
aF290
aa(lp832
F1442134304
aF36.525199999999998
aF32.110300000000002
aF21000
aF431
aF290
aa(lp833
F1442134311
aF36.529600000000002
aF32.096200000000003
aF20700
aF429
aF290
aa(lp834
F1442134316
aF36.532899999999998
aF32.0854
aF20475
aF428
aF290
aa(lp835
F1442134320
aF36.5364
aF32.074399999999997
aF20225
aF426
aF291
aa(lp836
F1442134325
aF36.540700000000001
aF32.060200000000002
aF19950
aF424
aF290
aa(lp837
F1442134331
aF36.544800000000002
aF32.0471
aF19700
aF421
aF290
aa(lp838
F1442134334
aF36.546900000000001
aF32.040199999999999
aF19575
aF421
aF290
aa(lp839
F1442134340
aF36.551099999999998
aF32.026499999999999
aF19350
aF419
aF290
aa(lp840
F1442134343
aF36.5533
aF32.0197
aF19225
aF418
aF290
aa(lp841
F1442134352
aF36.5593
aF31.9999
aF18850
aF415
aF290
aa(lp842
F1442134358
aF36.563499999999998
aF31.9863
aF18600
aF413
aF290
aa(lp843
F1442134365
aF36.567799999999998
aF31.972300000000001
aF18350
aF412
aF290
aa(lp844
F1442134367
aF36.57
aF31.965399999999999
aF18225
aF411
aF290
aa(lp845
F1442134372
aF36.571399999999997
aF31.960599999999999
aF18150
aF410
aF290
aa(lp846
F1442134375
aF36.573799999999999
aF31.9527
aF18000
aF410
aF290
aa(lp847
F1442134383
aF36.579999999999998
aF31.932600000000001
aF17625
aF407
aF290
aa(lp848
F1442134391
aF36.585700000000003
aF31.9132
aF17250
aF405
aF289
aa(lp849
F1442134396
aF36.587400000000002
aF31.906700000000001
aF17125
aF404
aF287
aa(lp850
F1442134400
aF36.5901
aF31.8935
aF16850
aF402
aF283
aa(lp851
F1442134404
aF36.591299999999997
aF31.886500000000002
aF16700
aF401
aF282
aa(lp852
F1442134408
aF36.592300000000002
aF31.8796
aF16550
aF401
aF279
aa(lp853
F1442134415
aF36.594299999999997
aF31.858899999999998
aF16050
aF401
aF276
aa(lp854
F1442134421
aF36.595599999999997
aF31.845099999999999
aF15725
aF401
aF276
aa(lp855
F1442134428
aF36.596899999999998
aF31.830100000000002
aF15400
aF401
aF276
aa(lp856
F1442134431
aF36.5974
aF31.823599999999999
aF15275
aF401
aF276
aa(lp857
F1442134434
aF36.597999999999999
aF31.816299999999998
aF15150
aF400
aF276
aa(lp858
F1442134443
aF36.599699999999999
aF31.796299999999999
aF14800
aF397
aF276
aa(lp859
F1442134446
aF36.6004
aF31.789100000000001
aF14700
aF396
aF275
aa(lp860
F1442134452
aF36.601399999999998
aF31.777200000000001
aF14500
aF393
aF275
aa(lp861
F1442134458
aF36.602600000000002
aF31.762899999999998
aF14275
aF390
aF275
aa(lp862
F1442134464
aF36.6038
aF31.7485
aF14000
aF388
aF275
aa(lp863
F1442134470
aF36.604799999999997
aF31.7362
aF13825
aF385
aF275
aa(lp864
F1442134476
aF36.606000000000002
aF31.722000000000001
aF13550
aF382
aF276
aa(lp865
F1442134482
aF36.606900000000003
aF31.712299999999999
aF13250
aF381
aF275
aa(lp866
F1442134488
aF36.608199999999997
aF31.6966
aF12875
aF383
aF275
aa(lp867
F1442134491
aF36.608800000000002
aF31.689499999999999
aF12675
aF385
aF275
aa(lp868
F1442134500
aF36.610399999999998
aF31.670000000000002
aF12250
aF385
aF275
aa(lp869
F1442134503
aF36.610900000000001
aF31.663
aF12150
aF384
aF275
aa(lp870
F1442134512
aF36.612400000000001
aF31.644600000000001
aF11975
aF377
aF275
aa(lp871
F1442134515
aF36.613100000000003
aF31.636399999999998
aF11900
aF374
aF275
aa(lp872
F1442134518
aF36.613599999999998
aF31.630199999999999
aF11825
aF371
aF275
aa(lp873
F1442134522
aF36.614199999999997
aF31.6234
aF11775
aF368
aF275
aa(lp874
F1442134530
aF36.615699999999997
aF31.6051
aF11600
aF361
aF275
aa(lp875
F1442134536
aF36.616599999999998
aF31.5946
aF11500
aF356
aF275
aa(lp876
F1442134542
aF36.617800000000003
aF31.580500000000001
aF11400
aF351
aF275
aa(lp877
F1442134548
aF36.618699999999997
aF31.568300000000001
aF11300
aF346
aF275
aa(lp878
F1442134554
aF36.619700000000002
aF31.556999999999999
aF11200
aF341
aF275
aa(lp879
F1442134560
aF36.620600000000003
aF31.545100000000001
aF11100
aF337
aF275
aa(lp880
F1442134563
aF36.621099999999998
aF31.539300000000001
aF11075
aF335
aF275
aa(lp881
F1442134566
aF36.621600000000001
aF31.533300000000001
aF11025
aF331
aF275
aa(lp882
F1442134575
aF36.622999999999998
aF31.516300000000001
aF10900
aF325
aF275
aa(lp883
F1442134578
aF36.623399999999997
aF31.5106
aF10850
aF322
aF275
aa(lp884
F1442134584
aF36.624099999999999
aF31.502300000000002
aF10775
aF319
aF275
aa(lp885
F1442134590
aF36.6252
aF31.488800000000001
aF10700
aF315
aF275
aa(lp886
F1442134596
aF36.625999999999998
aF31.478100000000001
aF10625
aF310
aF275
aa(lp887
F1442134599
aF36.626399999999997
aF31.4727
aF10600
aF308
aF275
aa(lp888
F1442134606
aF36.627299999999998
aF31.462199999999999
aF10525
aF304
aF275
aa(lp889
F1442134617
aF36.628900000000002
aF31.4422
aF10350
aF298
aF275
aa(lp890
F1442134620
aF36.629300000000001
aF31.437000000000001
aF10300
aF296
aF275
aa(lp891
F1442134626
aF36.630200000000002
aF31.426200000000001
aF10150
aF294
aF275
aa(lp892
F1442134629
aF36.630499999999998
aF31.422799999999999
aF10125
aF293
aF275
aa(lp893
F1442134638
aF36.631799999999998
aF31.406500000000001
aF9900
aF291
aF275
aa(lp894
F1442134642
aF36.632199999999997
aF31.401
aF9825
aF291
aF275
aa(lp895
F1442134644
aF36.632599999999996
aF31.396100000000001
aF9725
aF290
aF275
aa(lp896
F1442134650
aF36.633400000000002
aF31.385899999999999
aF9550
aF290
aF275
aa(lp897
F1442134656
aF36.634099999999997
aF31.3764
aF9375
aF291
aF275
aa(lp898
F1442134666
aF36.635300000000001
aF31.3611
aF9075
aF292
aF275
aa(lp899
F1442134668
aF36.6357
aF31.356200000000001
aF9000
aF292
aF275
aa(lp900
F1442134674
aF36.636400000000002
aF31.3475
aF8850
aF292
aF275
aa(lp901
F1442134678
aF36.636899999999997
aF31.340699999999998
aF8750
aF292
aF275
aa(lp902
F1442134684
aF36.637700000000002
aF31.3306
aF8575
aF292
aF275
aa(lp903
F1442134693
aF36.6389
aF31.3156
aF8300
aF292
aF275
aa(lp904
F1442134696
aF36.639299999999999
aF31.310600000000001
aF8225
aF292
aF275
aa(lp905
F1442134702
aF36.640099999999997
aF31.301200000000001
aF8050
aF293
aF275
aa(lp906
F1442134705
aF36.6404
aF31.296099999999999
aF7950
aF293
aF275
aa(lp907
F1442134708
aF36.640900000000002
aF31.290099999999999
aF7825
aF293
aF275
aa(lp908
F1442134714
aF36.6417
aF31.280000000000001
aF7675
aF292
aF275
aa(lp909
F1442134717
aF36.642200000000003
aF31.275300000000001
aF7625
aF291
aF275
aa(lp910
F1442134720
aF36.642499999999998
aF31.271000000000001
aF7575
aF288
aF275
aa(lp911
F1442134723
aF36.642899999999997
aF31.2653
aF7525
aF284
aF275
aa(lp912
F1442134738
aF36.644799999999996
aF31.241700000000002
aF7300
aF269
aF275
aa(lp913
F1442134741
aF36.645200000000003
aF31.237200000000001
aF7225
aF268
aF275
aa(lp914
F1442134744
aF36.645499999999998
aF31.234000000000002
aF7150
aF265
aF275
aa(lp915
F1442134750
aF36.646299999999997
aF31.222999999999999
aF6950
aF263
aF275
aa(lp916
F1442134756
aF36.646999999999998
aF31.214200000000002
aF6750
aF262
aF275
aa(lp917
F1442134760
aF36.647399999999998
aF31.209599999999998
aF6650
aF261
aF275
aa(lp918
F1442134766
aF36.648000000000003
aF31.2011
aF6475
aF261
aF275
aa(lp919
F1442134771
aF36.648800000000001
aF31.191800000000001
aF6300
aF262
aF275
aa(lp920
F1442134777
aF36.649500000000003
aF31.182500000000001
aF6125
aF264
aF275
aa(lp921
F1442134783
aF36.650199999999998
aF31.1738
aF5925
aF266
aF275
aa(lp922
F1442134789
aF36.651000000000003
aF31.164300000000001
aF5725
aF268
aF275
aa(lp923
F1442134795
aF36.652299999999997
aF31.154699999999998
aF5550
aF268
aF280
aa(lp924
F1442134799
aF36.652999999999999
aF31.1509
aF5475
aF269
aF282
aa(lp925
F1442134801
aF36.653599999999997
aF31.147500000000001
aF5350
aF270
aF283
aa(lp926
F1442134810
aF36.656999999999996
aF31.132000000000001
aF5000
aF275
aF286
aa(lp927
F1442134816
aF36.659199999999998
aF31.1234
aF4850
aF276
aF287
aa(lp928
F1442134822
aF36.661700000000003
aF31.114000000000001
aF4725
aF276
aF287
aa(lp929
F1442134825
aF36.662799999999997
aF31.109300000000001
aF4675
aF274
aF287
aa(lp930
F1442134831
aF36.665100000000002
aF31.1006
aF4550
aF273
aF287
aa(lp931
F1442134834
aF36.666400000000003
aF31.095800000000001
aF4475
aF272
aF287
aa(lp932
F1442134840
aF36.668300000000002
aF31.0883
aF4350
aF271
aF287
aa(lp933
F1442134846
aF36.670999999999999
aF31.077999999999999
aF4225
aF269
aF287
aa(lp934
F1442134855
aF36.674399999999999
aF31.064699999999998
aF3975
aF266
aF287
aa(lp935
F1442134858
aF36.675199999999997
aF31.061199999999999
aF3900
aF266
aF287
aa(lp936
F1442134864
aF36.677599999999998
aF31.051600000000001
aF3750
aF266
aF287
aa(lp937
F1442134867
aF36.678699999999999
aF31.0472
aF3675
aF266
aF287
aa(lp938
F1442134870
aF36.68
aF31.042200000000001
aF3575
aF266
aF287
aa(lp939
F1442134876
aF36.682200000000002
aF31.0335
aF3450
aF266
aF287
aa(lp940
F1442134879
aF36.683300000000003
aF31.0291
aF3400
aF266
aF287
aa(lp941
F1442134882
aF36.684199999999997
aF31.025099999999998
aF3350
aF264
aF287
aa(lp942
F1442134885
aF36.685400000000001
aF31.020499999999998
aF3300
aF263
aF287
aa(lp943
F1442134891
aF36.687600000000003
aF31.011600000000001
aF3200
aF261
aF287
aa(lp944
F1442134895
aF36.688699999999997
aF31.007100000000001
aF3150
aF261
aF286
aa(lp945
F1442134904
aF36.691699999999997
aF30.994900000000001
aF3025
aF257
aF287
aa(lp946
F1442134907
aF36.692900000000002
aF30.990400000000001
aF2975
aF256
aF287
aa(lp947
F1442134909
aF36.693899999999999
aF30.9863
aF2925
aF255
aF287
aa(lp948
F1442134916
aF36.695599999999999
aF30.979399999999998
aF2850
aF253
aF287
aa(lp949
F1442134921
aF36.698099999999997
aF30.9696
aF2725
aF250
aF287
aa(lp950
F1442134927
aF36.700200000000002
aF30.961500000000001
aF2625
aF248
aF287
aa(lp951
F1442134933
aF36.702199999999998
aF30.953700000000001
aF2550
aF247
aF287
aa(lp952
F1442134939
aF36.704500000000003
aF30.944700000000001
aF2425
aF245
aF287
aa(lp953
F1442134945
aF36.706200000000003
aF30.937799999999999
aF2350
aF243
aF287
aa(lp954
F1442134949
aF36.7074
aF30.9331
aF2300
aF242
aF287
aa(lp955
F1442134957
aF36.710599999999999
aF30.9208
aF2125
aF239
aF287
aa(lp956
F1442134961
aF36.711599999999997
aF30.916899999999998
aF2100
aF238
aF287
aa(lp957
F1442134964
aF36.712600000000002
aF30.913
aF2050
aF237
aF287
aa(lp958
F1442134967
aF36.713700000000003
aF30.908899999999999
aF2000
aF235
aF288
aa(lp959
F1442134976
aF36.716700000000003
aF30.8977
aF1900
aF229
aF288
aa(lp960
F1442134979
aF36.717700000000001
aF30.893999999999998
aF1875
aF227
aF288
aa(lp961
F1442134988
aF36.720599999999997
aF30.882899999999999
aF1800
aF222
aF288
aa(lp962
F1442134991
aF36.721699999999998
aF30.879200000000001
aF1775
aF220
aF288
aa(lp963
F1442134995
aF36.722700000000003
aF30.8752
aF1750
aF218
aF288
aa(lp964
F1442135000
aF36.724499999999999
aF30.8687
aF1700
aF213
aF288
aa(lp965
F1442135009
aF36.727200000000003
aF30.859000000000002
aF1675
aF205
aF288
aa(lp966
F1442135012
aF36.728299999999997
aF30.854800000000001
aF1650
aF203
aF288
aa(lp967
F1442135021
aF36.731000000000002
aF30.8447
aF1625
aF198
aF288
aa(lp968
F1442135024
aF36.731900000000003
aF30.8414
aF1600
aF197
aF288
aa(lp969
F1442135027
aF36.732700000000001
aF30.8384
aF1600
aF197
aF288
aa(lp970
F1442135033
aF36.734900000000003
aF30.8323
aF1575
aF194
aF297
aa(lp971
F1442135039
aF36.738300000000002
aF30.826599999999999
aF1575
aF191
aF308
aa(lp972
F1442135045
aF36.741999999999997
aF30.8217
aF1550
aF190
aF314
aa(lp973
F1442135048
aF36.743299999999998
aF30.8202
aF1550
aF190
aF315
aa(lp974
F1442135057
aF36.749099999999999
aF30.813400000000001
aF1550
aF188
aF317
aa(lp975
F1442135060
aF36.7517
aF30.810500000000001
aF1550
aF189
aF317
aa(lp976
F1442135069
aF36.757599999999996
aF30.803899999999999
aF1550
aF187
aF318
aa(lp977
F1442135072
aF36.759399999999999
aF30.8018
aF1575
aF184
aF318
aa(lp978
F1442135081
aF36.765700000000002
aF30.796700000000001
aF1575
aF171
aF333
aa(lp979
F1442135087
aF36.7699
aF30.795300000000001
aF1575
aF163
aF346
aa(lp980
F1442135093
aF36.7742
aF30.794699999999999
aF1575
aF156
aF353
aa(lp981
F1442135096
aF36.775599999999997
aF30.794599999999999
aF1575
aF152
aF357
aa(lp982
F1442135100
aF36.778700000000001
aF30.794499999999999
aF1575
aF149
aF359
aa(lp983
F1442135102
aF36.780700000000003
aF30.794499999999999
aF1575
aF148
aF359
aa(lp984
F1442135123
aF36.793399999999998
aF30.795400000000001
aF1550
aF142
aF4
aa(lp985
F1442135127
aF36.796700000000001
aF30.7957
aF1550
aF141
aF4
aa(lp986
F1442135132
aF36.800199999999997
aF30.796099999999999
aF1550
aF141
aF5
aa(lp987
F1442135138
aF36.803100000000001
aF30.796600000000002
aF1550
aF141
aF6
aa(lp988
F1442135142
aF36.806600000000003
aF30.797000000000001
aF1550
aF141
aF6
aa(lp989
F1442135157
aF36.816400000000002
aF30.798400000000001
aF1450
aF141
aF6
aa(lp990
F1442135168
aF36.822600000000001
aF30.799199999999999
aF1350
aF139
aF6
aa(lp991
F1442135178
aF36.829300000000003
aF30.8002
aF1200
aF138
aF6
aa(lp992
F1442135187
aF36.835700000000003
aF30.800999999999998
aF1075
aF135
aF5
aa(lp993
F1442135192
aF36.838799999999999
aF30.801500000000001
aF1025
aF135
aF5
aa(lp994
F1442135197
aF36.841799999999999
aF30.8019
aF975
aF135
aF5
aa(lp995
F1442135202
aF36.845100000000002
aF30.802299999999999
aF925
aF136
aF6
aa(lp996
F1442135207
aF36.848399999999998
aF30.802700000000002
aF875
aF137
aF5
aa(lp997
F1442135211
aF36.851500000000001
aF30.8032
aF800
aF137
aF5
aa(lp998
F1442135216
aF36.8538
aF30.8034
aF775
aF138
aF6
aa(lp999
F1442135232
aF36.8643
aF30.805
aF575
aF141
aF6
aa(lp1000
F1442135237
aF36.867600000000003
aF30.805499999999999
aF525
aF142
aF6
aa(lp1001
F1442135242
aF36.870899999999999
aF30.805900000000001
aF450
aF143
aF5
aa(lp1002
F1442135247
aF36.874200000000002
aF30.8063
aF400
aF143
aF5
aa(lp1003
F1442135252
aF36.875599999999999
aF30.8065
aF375
aF143
aF6
aa(lp1004
F1442135257
aF36.880099999999999
aF30.807200000000002
aF275
aF143
aF6
aa(lp1005
F1442135272
aF36.890500000000003
aF30.808599999999998
aF0
aF125
aF5
aa(lp1006
F1442135277
aF36.892800000000001
aF30.808900000000001
aF0
aF105
aF5
aa(lp1007
F1442135289
aF36.896900000000002
aF30.8094
aF0
aF61
aF5
aa(lp1008
F1442135292
aF36.898000000000003
aF30.8095
aF0
aF44
aF2
aa(lp1009
F1442135301
aF36.8996
aF30.809100000000001
aF0
aF36
aF343
aa(lp1010
F1442135305
aF36.899900000000002
aF30.809000000000001
aF0
aF29
aF337
aa(lp1011
F1442135308
aF36.900199999999998
aF30.808800000000002
aF0
aF18
aF337
aa(lp1012
F1442135316
aF36.900700000000001
aF30.808499999999999
aF0
aF29
aF337
aa(lp1013
F1442135319
aF36.9009
aF30.808399999999999
aF0
aF28
aF326
aa(lp1014
F1442135328
aF36.901000000000003
aF30.8079
aF0
aF26
aF258
aa(lp1015
F1442135331
aF36.9009
aF30.807700000000001
aF0
aF25
aF236
aa(lp1016
F1442135337
aF36.900599999999997
aF30.807500000000001
aF0
aF25
aF194
aa(lp1017
F1442135340
aF36.900500000000001
aF30.807500000000001
aF0
aF25
aF185
aa(lp1018
F1442135343
aF36.900300000000001
aF30.807500000000001
aF0
aF26
aF185
aa(lp1019
F1442135352
aF36.899900000000002
aF30.807500000000001
aF0
aF28
aF185
aa(lp1020
F1442135355
aF36.899700000000003
aF30.807400000000001
aF0
aF29
aF185
aa(lp1021
F1442135358
aF36.899500000000003
aF30.807400000000001
aF0
aF30
aF185
aa(lp1022
F1442135364
aF36.8992
aF30.807400000000001
aF0
aF28
aF185
aa(lp1023
F1442135373
aF36.898800000000001
aF30.807300000000001
aF0
aF23
aF185
aa(lp1024
F1442135377
aF36.898699999999998
aF30.807300000000001
aF0
aF23
aF185
aa(lp1025
F1442135384
aF36.898499999999999
aF30.807300000000001
aF0
aF23
aF188
aa(lp1026
F1442135389
aF36.898200000000003
aF30.807200000000002
aF0
aF23
aF185
aa(lp1027
F1442135392
aF36.898000000000003
aF30.807200000000002
aF0
aF23
aF185
aa(lp1028
F1442135394
aF36.8979
aF30.807200000000002
aF0
aF24
aF188
aa(lp1029
F1442135404
aF36.897599999999997
aF30.807099999999998
aF0
aF19
aF185
aa(lp1030
F1442135407
aF36.897500000000001
aF30.807099999999998
aF0
aF17
aF185
aa(lp1031
F1442135413
aF36.897300000000001
aF30.807099999999998
aF0
aF19
aF185
aa(lp1032
F1442135416
aF36.897199999999998
aF30.807099999999998
aF0
aF20
aF185
aa(lp1033
F1442135425
aF36.896900000000002
aF30.806999999999999
aF0
aF23
aF185
aa(lp1034
F1442135428
aF36.896700000000003
aF30.806999999999999
aF0
aF24
aF185
aa(lp1035
F1442135431
aF36.896500000000003
aF30.806999999999999
aF0
aF25
aF185
aa(lp1036
F1442135437
aF36.8962
aF30.806999999999999
aF0
aF27
aF185
aa(lp1037
F1442135443
aF36.895899999999997
aF30.806899999999999
aF0
aF28
aF185
aa(lp1038
F1442135452
aF36.895499999999998
aF30.806899999999999
aF0
aF30
aF185
aa(lp1039
F1442135462
aF36.8949
aF30.806799999999999
aF0
aF33
aF185
aa(lp1040
F1442135464
aF36.894599999999997
aF30.806699999999999
aF0
aF34
aF185
aa(lp1041
F1442135473
aF36.893999999999998
aF30.806699999999999
aF0
aF15
aF185
aa(lp1042
F1442135482
aF36.8932
aF30.8065
aF0
aF17
aF185
aa(lp1043
F1442135485
aF36.893000000000001
aF30.8065
aF0
aF17
aF185
aa(lp1044
F1442135488
aF36.892899999999997
aF30.8065
aF0
aF17
aF185
aa(lp1045
F1442135497
aF36.892200000000003
aF30.805900000000001
aF0
aF17
aF236
aa(lp1046
F1442135500
aF36.892200000000003
aF30.805599999999998
aF0
aF17
aF255
aa(lp1047
F1442135509
aF36.892200000000003
aF30.8047
aF0
aF18
aF275
aa(lp1048
F1442135518
aF36.892299999999999
aF30.803699999999999
aF0
aF20
aF275
aa(lp1049
F1442135521
aF36.892299999999999
aF30.8034
aF0
aF20
aF275
aa(lp1050
F1442135530
aF36.892400000000002
aF30.802199999999999
aF0
aF21
aF275
aa(lp1051
F1442135533
aF36.892400000000002
aF30.8018
aF0
aF22
aF275
aa(lp1052
F1442135538
aF36.892499999999998
aF30.801400000000001
aF0
aF22
aF275
aa(lp1053
F1442135545
aF36.892600000000002
aF30.800599999999999
aF0
aF21
aF275
aa(lp1054
F1442135563
aF36.8934
aF30.7989
aF0
aF19
aF337
aa(lp1055
F1442135569
aF36.893999999999998
aF30.7988
aF0
aF21
aF5
aa(lp1056
F1442135578
aF36.8949
aF30.7989
aF0
aF17
aF5
aa(lp1057
F1442135581
aF36.895099999999999
aF30.798999999999999
aF0
aF17
aF5
aa(lp1058
F1442135584
aF36.895400000000002
aF30.798999999999999
aF0
aF16
aF5
aa(lp1059
F1442135587
aF36.895499999999998
aF30.798999999999999
aF0
aF15
aF5
aa(lp1060
F1442135602
aF36.896299999999997
aF30.799600000000002
aF0
aF31
aF75
aa(lp1061
F1442135605
aF36.8962
aF30.799800000000001
aF0
aF30
aF98
aa(lp1062
F1442135608
aF36.8962
aF30.799900000000001
aF0
aF31
aF95
aa(lp1063
F1442135618
aF36.896099999999997
aF30.800599999999999
aF0
aF28
aF126
aa(lp1064
F1442135626
aF36.895800000000001
aF30.800599999999999
aF0
aF17
aF182
aa(lp1065
F1442135629
aF36.895699999999998
aF30.800599999999999
aF0
aF17
aF185
aa(lp1066
F1442135632
aF36.895600000000002
aF30.800599999999999
aF0
aF16
aF185
aa(lp1067
F1442135642
aF36.895400000000002
aF30.8005
aF0
aF11
aF185
aa(lp1068
F1442135647
aF36.895400000000002
aF30.8005
aF0
aF2
aF185
aa(lp1069
F1442135654
aF36.895400000000002
aF30.8005
aF0
aF0
aF234
aa(lp1070
F1442135657
aF36.895400000000002
aF30.8005
aF0
aF0
aF300
aa.