(lp1
(lp2
F1442235272
aF29.237100000000002
aF47.974600000000002
aF0
aF14
aF154
aa(lp3
F1442235280
aF29.236899999999999
aF47.974600000000002
aF0
aF14
aF168
aa(lp4
F1442235290
aF29.236699999999999
aF47.974499999999999
aF0
aF22
aF210
aa(lp5
F1442235291
aF29.236599999999999
aF47.974400000000003
aF0
aF24
aF219
aa(lp6
F1442235297
aF29.236499999999999
aF47.9741
aF0
aF28
aF241
aa(lp7
F1442235302
aF29.2364
aF47.9739
aF0
aF30
aF244
aa(lp8
F1442235306
aF29.2363
aF47.973599999999998
aF0
aF33
aF247
aa(lp9
F1442235313
aF29.2361
aF47.973100000000002
aF0
aF15
aF247
aa(lp10
F1442235316
aF29.235900000000001
aF47.972700000000003
aF0
aF16
aF244
aa(lp11
F1442235322
aF29.235700000000001
aF47.972200000000001
aF0
aF17
aF244
aa(lp12
F1442235325
aF29.235600000000002
aF47.972000000000001
aF0
aF17
aF244
aa(lp13
F1442235334
aF29.235299999999999
aF47.971200000000003
aF0
aF15
aF244
aa(lp14
F1442235337
aF29.235199999999999
aF47.970999999999997
aF0
aF16
aF244
aa(lp15
F1442235341
aF29.235099999999999
aF47.970700000000001
aF0
aF34
aF244
aa(lp16
F1442235349
aF29.234999999999999
aF47.970100000000002
aF0
aF15
aF264
aa(lp17
F1442235358
aF29.235099999999999
aF47.9694
aF0
aF16
aF278
aa(lp18
F1442235361
aF29.235099999999999
aF47.969000000000001
aF0
aF17
aF278
aa(lp19
F1442235364
aF29.235099999999999
aF47.968800000000002
aF0
aF17
aF278
aa(lp20
F1442235370
aF29.235199999999999
aF47.968200000000003
aF0
aF18
aF278
aa(lp21
F1442235378
aF29.235299999999999
aF47.967700000000001
aF0
aF17
aF278
aa(lp22
F1442235379
aF29.235299999999999
aF47.967399999999998
aF0
aF18
aF278
aa(lp23
F1442235390
aF29.235499999999998
aF47.966799999999999
aF0
aF16
aF300
aa(lp24
F1442235394
aF29.236000000000001
aF47.9664
aF0
aF17
aF331
aa(lp25
F1442235401
aF29.2364
aF47.966200000000001
aF0
aF18
aF334
aa(lp26
F1442235414
aF29.237500000000001
aF47.965600000000002
aF0
aF21
aF334
aa(lp27
F1442235416
aF29.2376
aF47.965499999999999
aF0
aF21
aF334
aa(lp28
F1442235428
aF29.238900000000001
aF47.9649
aF0
aF24
aF334
aa(lp29
F1442235437
aF29.239799999999999
aF47.964399999999998
aF0
aF23
aF334
aa(lp30
F1442235440
aF29.240100000000002
aF47.964199999999998
aF0
aF30
aF334
aa(lp31
F1442235452
aF29.240600000000001
aF47.963999999999999
aF0
aF32
aF334
aa(lp32
F1442235455
aF29.2409
aF47.963799999999999
aF0
aF34
aF334
aa(lp33
F1442235459
aF29.241
aF47.963700000000003
aF0
aF15
aF334
aa(lp34
F1442235470
aF29.241599999999998
aF47.9634
aF0
aF23
aF326
aa(lp35
F1442235476
aF29.241700000000002
aF47.963000000000001
aF0
aF26
aF281
aa(lp36
F1442235482
aF29.241599999999998
aF47.962699999999998
aF0
aF27
aF244
aa(lp37
F1442235488
aF29.241499999999998
aF47.962600000000002
aF0
aF2
aF244
aa(lp38
F1442235498
aF29.241499999999998
aF47.962499999999999
aF0
aF2
aF244
aa(lp39
F1442235500
aF29.241499999999998
aF47.962499999999999
aF0
aF2
aF244
aa(lp40
F1442235506
aF29.241499999999998
aF47.962499999999999
aF0
aF0
aF244
aa(lp41
F1442235514
aF29.241499999999998
aF47.962499999999999
aF0
aF0
aF244
aa(lp42
F1442235515
aF29.241499999999998
aF47.962499999999999
aF0
aF0
aF244
aa(lp43
F1442235521
aF29.241499999999998
aF47.962499999999999
aF0
aF0
aF244
aa(lp44
F1442235525
aF29.241499999999998
aF47.962499999999999
aF0
aF0
aF244
aa(lp45
F1442235537
aF29.241499999999998
aF47.962499999999999
aF0
aF0
aF244
aa(lp46
F1442235541
aF29.241499999999998
aF47.962499999999999
aF0
aF0
aF244
aa(lp47
F1442235549
aF29.241499999999998
aF47.962499999999999
aF0
aF0
aF244
aa(lp48
F1442235552
aF29.241499999999998
aF47.962499999999999
aF0
aF0
aF244
aa(lp49
F1442235558
aF29.241499999999998
aF47.962499999999999
aF0
aF0
aF244
aa(lp50
F1442235564
aF29.241499999999998
aF47.962499999999999
aF0
aF0
aF244
aa(lp51
F1442235567
aF29.241499999999998
aF47.962499999999999
aF0
aF0
aF244
aa(lp52
F1442235573
aF29.241499999999998
aF47.962499999999999
aF0
aF0
aF244
aa(lp53
F1442235582
aF29.241499999999998
aF47.962499999999999
aF0
aF0
aF244
aa(lp54
F1442235588
aF29.241499999999998
aF47.962499999999999
aF0
aF0
aF244
aa(lp55
F1442235594
aF29.241499999999998
aF47.962499999999999
aF0
aF0
aF244
aa(lp56
F1442235598
aF29.241499999999998
aF47.962499999999999
aF0
aF0
aF244
aa(lp57
F1442235612
aF29.241499999999998
aF47.962499999999999
aF0
aF0
aF244
aa(lp58
F1442235621
aF29.241499999999998
aF47.962499999999999
aF0
aF0
aF244
aa(lp59
F1442235628
aF29.241499999999998
aF47.962499999999999
aF0
aF0
aF244
aa(lp60
F1442235633
aF29.241499999999998
aF47.962499999999999
aF0
aF0
aF244
aa(lp61
F1442235636
aF29.241499999999998
aF47.962499999999999
aF0
aF0
aF244
aa(lp62
F1442235650
aF29.241499999999998
aF47.962499999999999
aF0
aF0
aF244
aa(lp63
F1442235652
aF29.241499999999998
aF47.962499999999999
aF0
aF0
aF244
aa(lp64
F1442235664
aF29.241499999999998
aF47.962499999999999
aF0
aF0
aF244
aa(lp65
F1442235667
aF29.241499999999998
aF47.962499999999999
aF0
aF0
aF244
aa(lp66
F1442235674
aF29.241499999999998
aF47.962499999999999
aF0
aF0
aF244
aa(lp67
F1442235680
aF29.241499999999998
aF47.962499999999999
aF0
aF0
aF244
aa(lp68
F1442235683
aF29.241499999999998
aF47.962499999999999
aF0
aF0
aF244
aa(lp69
F1442235688
aF29.241499999999998
aF47.962499999999999
aF0
aF0
aF244
aa(lp70
F1442235694
aF29.241499999999998
aF47.962499999999999
aF0
aF0
aF244
aa(lp71
F1442235697
aF29.241499999999998
aF47.962499999999999
aF0
aF0
aF244
aa(lp72
F1442235704
aF29.241499999999998
aF47.962499999999999
aF0
aF0
aF244
aa(lp73
F1442235718
aF29.241499999999998
aF47.962499999999999
aF0
aF0
aF244
aa(lp74
F1442235722
aF29.241499999999998
aF47.962499999999999
aF0
aF0
aF244
aa(lp75
F1442235727
aF29.241499999999998
aF47.962499999999999
aF0
aF0
aF244
aa(lp76
F1442235738
aF29.241499999999998
aF47.962499999999999
aF0
aF0
aF244
aa(lp77
F1442235743
aF29.241499999999998
aF47.962499999999999
aF0
aF0
aF244
aa(lp78
F1442235749
aF29.241499999999998
aF47.962499999999999
aF0
aF0
aF244
aa(lp79
F1442235765
aF29.241499999999998
aF47.962499999999999
aF0
aF0
aF244
aa(lp80
F1442235773
aF29.241499999999998
aF47.962499999999999
aF0
aF0
aF244
aa(lp81
F1442235782
aF29.241499999999998
aF47.962499999999999
aF0
aF2
aF244
aa(lp82
F1442235794
aF29.241399999999999
aF47.962299999999999
aF0
aF18
aF241
aa(lp83
F1442235797
aF29.241299999999999
aF47.9621
aF0
aF25
aF233
aa(lp84
F1442235812
aF29.240400000000001
aF47.961799999999997
aF0
aF15
aF185
aa(lp85
F1442235821
aF29.239799999999999
aF47.9619
aF0
aF33
aF157
aa(lp86
F1442235824
aF29.239599999999999
aF47.962000000000003
aF0
aF33
aF154
aa(lp87
F1442235830
aF29.2392
aF47.962200000000003
aF0
aF19
aF154
aa(lp88
F1442235833
aF29.238900000000001
aF47.962400000000002
aF0
aF24
aF154
aa(lp89
F1442235836
aF29.238399999999999
aF47.962600000000002
aF0
aF34
aF154
aa(lp90
F1442235842
aF29.237100000000002
aF47.9634
aF0
aF64
aF154
aa(lp91
F1442235848
aF29.2349
aF47.964500000000001
aF0
aF94
aF154
aa(lp92
F1442235857
aF29.230899999999998
aF47.9666
aF350
aF126
aF155
aa(lp93
F1442235863
aF29.2272
aF47.968699999999998
aF350
aF148
aF154
aa(lp94
F1442235869
aF29.222899999999999
aF47.9709
aF325
aF166
aF155
aa(lp95
F1442235878
aF29.2165
aF47.974200000000003
aF450
aF181
aF155
aa(lp96
F1442235881
aF29.213799999999999
aF47.975700000000003
aF600
aF177
aF155
aa(lp97
F1442235884
aF29.2117
aF47.976799999999997
aF750
aF173
aF155
aa(lp98
F1442235894
aF29.205200000000001
aF47.9801
aF1150
aF166
aF155
aa(lp99
F1442235897
aF29.203099999999999
aF47.981200000000001
aF1300
aF168
aF155
aa(lp100
F1442235905
aF29.1967
aF47.984400000000001
aF1625
aF168
aF156
aa(lp101
F1442235909
aF29.194400000000002
aF47.985500000000002
aF1750
aF169
aF156
aa(lp102
F1442235915
aF29.190200000000001
aF47.9878
aF1925
aF172
aF155
aa(lp103
F1442235926
aF29.180700000000002
aF47.992800000000003
aF2200
aF187
aF155
aa(lp104
F1442235929
aF29.1784
aF47.994
aF2225
aF189
aF155
aa(lp105
F1442235932
aF29.176200000000001
aF47.995199999999997
aF2275
aF192
aF155
aa(lp106
F1442235938
aF29.1709
aF47.997999999999998
aF2350
aF199
aF154
aa(lp107
F1442235945
aF29.165600000000001
aF48.000799999999998
aF2400
aF208
aF154
aa(lp108
F1442235956
aF29.154499999999999
aF48.006799999999998
aF2525
aF224
aF154
aa(lp109
F1442235962
aF29.148700000000002
aF48.009900000000002
aF2600
aF229
aF154
aa(lp110
F1442235968
aF29.142900000000001
aF48.012999999999998
aF2725
aF236
aF154
aa(lp111
F1442235972
aF29.140000000000001
aF48.014499999999998
aF2750
aF239
aF155
aa(lp112
F1442235978
aF29.133600000000001
aF48.018000000000001
aF2850
aF248
aF154
aa(lp113
F1442235982
aF29.130299999999998
aF48.0197
aF2900
aF250
aF154
aa(lp114
F1442235990
aF29.1205
aF48.024999999999999
aF3075
aF262
aF154
aa(lp115
F1442235993
aF29.117000000000001
aF48.026899999999998
aF3150
aF267
aF154
aa(lp116
F1442235996
aF29.113800000000001
aF48.028700000000001
aF3200
aF270
aF154
aa(lp117
F1442236002
aF29.1068
aF48.031999999999996
aF3350
aF274
aF160
aa(lp118
F1442236008
aF29.099299999999999
aF48.034100000000002
aF3525
aF278
aF169
aa(lp119
F1442236012
aF29.096
aF48.034500000000001
aF3625
aF279
aF173
aa(lp120
F1442236036
aF29.0656
aF48.031399999999998
aF4700
aF276
aF186
aa(lp121
F1442236042
aF29.0548
aF48.029499999999999
aF5075
aF277
aF188
aa(lp122
F1442236048
aF29.047000000000001
aF48.028199999999998
aF5325
aF278
aF188
aa(lp123
F1442236051
aF29.043299999999999
aF48.027500000000003
aF5450
aF279
aF188
aa(lp124
F1442236061
aF29.031099999999999
aF48.025399999999998
aF5825
aF281
aF188
aa(lp125
F1442236064
aF29.0273
aF48.024799999999999
aF5950
aF281
aF188
aa(lp126
F1442236073
aF29.015599999999999
aF48.022799999999997
aF6300
aF283
aF188
aa(lp127
F1442236076
aF29.011700000000001
aF48.022199999999998
aF6400
aF284
aF188
aa(lp128
F1442236085
aF28.999700000000001
aF48.020200000000003
aF6725
aF287
aF188
aa(lp129
F1442236088
aF28.995799999999999
aF48.019500000000001
aF6850
aF288
aF188
aa(lp130
F1442236091
aF28.991700000000002
aF48.018799999999999
aF6975
aF288
aF188
aa(lp131
F1442236102
aF28.979299999999999
aF48.0167
aF7325
aF291
aF188
aa(lp132
F1442236109
aF28.969799999999999
aF48.015099999999997
aF7600
aF290
aF187
aa(lp133
F1442236112
aF28.9635
aF48.014099999999999
aF7800
aF292
aF187
aa(lp134
F1442236118
aF28.955400000000001
aF48.012799999999999
aF8025
aF294
aF187
aa(lp135
F1442236124
aF28.947199999999999
aF48.011499999999998
aF8225
aF296
aF187
aa(lp136
F1442236130
aF28.939
aF48.010199999999998
aF8450
aF297
aF187
aa(lp137
F1442236140
aF28.925899999999999
aF48.008099999999999
aF8825
aF299
aF188
aa(lp138
F1442236146
aF28.9176
aF48.006799999999998
aF9075
aF299
aF188
aa(lp139
F1442236158
aF28.901499999999999
aF48.004100000000001
aF9550
aF301
aF188
aa(lp140
F1442236161
aF28.8965
aF48.003300000000003
aF9675
aF302
aF188
aa(lp141
F1442236170
aF28.884
aF48.001199999999997
aF9925
aF304
aF188
aa(lp142
F1442236176
aF28.875499999999999
aF47.999699999999997
aF10075
aF303
aF188
aa(lp143
F1442236182
aF28.867899999999999
aF47.998600000000003
aF10225
aF302
aF187
aa(lp144
F1442236188
aF28.8582
aF47.997
aF10450
aF306
aF188
aa(lp145
F1442236194
aF28.849799999999998
aF47.995600000000003
aF10575
aF311
aF188
aa(lp146
F1442236197
aF28.845600000000001
aF47.994900000000001
aF10625
aF314
aF188
aa(lp147
F1442236200
aF28.841000000000001
aF47.994199999999999
aF10675
aF317
aF188
aa(lp148
F1442236210
aF28.827100000000002
aF47.991900000000001
aF10825
aF327
aF188
aa(lp149
F1442236213
aF28.822099999999999
aF47.991100000000003
aF10875
aF331
aF187
aa(lp150
F1442236216
aF28.817499999999999
aF47.990299999999998
aF10925
aF332
aF187
aa(lp151
F1442236225
aF28.805599999999998
aF47.988399999999999
aF11050
aF341
aF188
aa(lp152
F1442236228
aF28.798999999999999
aF47.987299999999998
aF11125
aF341
aF188
aa(lp153
F1442236237
aF28.783899999999999
aF47.9848
aF11275
aF355
aF188
aa(lp154
F1442236240
aF28.7788
aF47.984000000000002
aF11325
aF358
aF188
aa(lp155
F1442236249
aF28.7637
aF47.9816
aF11425
aF367
aF188
aa(lp156
F1442236252
aF28.758700000000001
aF47.980699999999999
aF11475
aF370
aF188
aa(lp157
F1442236258
aF28.7485
aF47.978999999999999
aF11575
aF375
aF188
aa(lp158
F1442236265
aF28.738
aF47.9773
aF11675
aF379
aF188
aa(lp159
F1442236270
aF28.7285
aF47.9758
aF11825
aF382
aF188
aa(lp160
F1442236276
aF28.716899999999999
aF47.9739
aF12050
aF383
aF188
aa(lp161
F1442236285
aF28.700700000000001
aF47.971200000000003
aF12425
aF384
aF188
aa(lp162
F1442236288
aF28.6952
aF47.970300000000002
aF12550
aF384
aF188
aa(lp163
F1442236298
aF28.679400000000001
aF47.967700000000001
aF12925
aF384
aF188
aa(lp164
F1442236300
aF28.6738
aF47.966799999999999
aF13050
aF384
aF188
aa(lp165
F1442236306
aF28.663
aF47.9651
aF13275
aF385
aF188
aa(lp166
F1442236309
aF28.657900000000001
aF47.964199999999998
aF13375
aF386
aF188
aa(lp167
F1442236313
aF28.652000000000001
aF47.963200000000001
aF13500
aF387
aF188
aa(lp168
F1442236316
aF28.646699999999999
aF47.9621
aF13575
aF388
aF190
aa(lp169
F1442236325
aF28.6312
aF47.957000000000001
aF13875
aF391
aF200
aa(lp170
F1442236328
aF28.626000000000001
aF47.954500000000003
aF13975
aF392
aF203
aa(lp171
F1442236334
aF28.616199999999999
aF47.948599999999999
aF14175
aF393
aF210
aa(lp172
F1442236340
aF28.607500000000002
aF47.941499999999998
aF14400
aF394
aF218
aa(lp173
F1442236346
aF28.5992
aF47.933
aF14625
aF396
aF223
aa(lp174
F1442236349
aF28.595099999999999
aF47.928600000000003
aF14725
aF396
aF223
aa(lp175
F1442236352
aF28.590900000000001
aF47.923999999999999
aF14825
aF396
aF224
aa(lp176
F1442236358
aF28.583300000000001
aF47.915599999999998
aF15000
aF398
aF224
aa(lp177
F1442236365
aF28.575299999999999
aF47.906500000000001
aF15150
aF400
aF224
aa(lp178
F1442236367
aF28.570699999999999
aF47.901400000000002
aF15250
aF403
aF224
aa(lp179
F1442236373
aF28.563199999999998
aF47.892899999999997
aF15375
aF404
aF224
aa(lp180
F1442236377
aF28.558299999999999
aF47.887500000000003
aF15500
aF405
aF224
aa(lp181
F1442236382
aF28.5503
aF47.878500000000003
aF15725
aF405
aF224
aa(lp182
F1442236389
aF28.5425
aF47.869599999999998
aF15925
aF405
aF224
aa(lp183
F1442236393
aF28.538399999999999
aF47.865099999999998
aF16025
aF405
aF224
aa(lp184
F1442236398
aF28.5303
aF47.856000000000002
aF16250
aF407
aF224
aa(lp185
F1442236402
aF28.526399999999999
aF47.851500000000001
aF16300
aF408
aF224
aa(lp186
F1442236410
aF28.514099999999999
aF47.837800000000001
aF16500
aF412
aF224
aa(lp187
F1442236416
aF28.505500000000001
aF47.828000000000003
aF16700
aF413
aF225
aa(lp188
F1442236422
aF28.497199999999999
aF47.818600000000004
aF16900
aF413
aF225
aa(lp189
F1442236428
aF28.4893
aF47.8095
aF17075
aF414
aF225
aa(lp190
F1442236434
aF28.480899999999998
aF47.799999999999997
aF17250
aF416
aF225
aa(lp191
F1442236437
aF28.477499999999999
aF47.796100000000003
aF17325
aF417
aF225
aa(lp192
F1442236440
aF28.4725
aF47.790300000000002
aF17425
aF417
aF225
aa(lp193
F1442236449
aF28.460599999999999
aF47.777000000000001
aF17625
aF420
aF225
aa(lp194
F1442236452
aF28.456099999999999
aF47.771799999999999
aF17700
aF421
aF225
aa(lp195
F1442236458
aF28.447500000000002
aF47.762
aF17850
aF422
aF225
aa(lp196
F1442236465
aF28.439499999999999
aF47.752899999999997
aF18025
aF423
aF225
aa(lp197
F1442236473
aF28.428100000000001
aF47.740000000000002
aF18250
aF424
aF225
aa(lp198
F1442236482
aF28.4147
aF47.724800000000002
aF18450
aF427
aF225
aa(lp199
F1442236489
aF28.405000000000001
aF47.713700000000003
aF18625
aF428
aF225
aa(lp200
F1442236492
aF28.400500000000001
aF47.708799999999997
aF18700
aF429
aF225
aa(lp201
F1442236495
aF28.398399999999999
aF47.706299999999999
aF18750
aF429
aF225
aa(lp202
F1442236501
aF28.387599999999999
aF47.694200000000002
aF18950
aF431
aF225
aa(lp203
F1442236510
aF28.376200000000001
aF47.681199999999997
aF19125
aF432
aF225
aa(lp204
F1442236513
aF28.372699999999998
aF47.677300000000002
aF19200
aF433
aF225
aa(lp205
F1442236522
aF28.357800000000001
aF47.660400000000003
aF19475
aF434
aF225
aa(lp206
F1442236525
aF28.353400000000001
aF47.655500000000004
aF19575
aF434
aF225
aa(lp207
F1442236528
aF28.3521
aF47.6539
aF19600
aF434
aF225
aa(lp208
F1442236537
aF28.337900000000001
aF47.637799999999999
aF19875
aF434
aF225
aa(lp209
F1442236543
aF28.330500000000001
aF47.6295
aF19950
aF437
aF225
aa(lp210
F1442236561
aF28.3018
aF47.597099999999998
aF20350
aF442
aF225
aa(lp211
F1442236570
aF28.289100000000001
aF47.582700000000003
aF20575
aF444
aF225
aa(lp212
F1442236574
aF28.284700000000001
aF47.5777
aF20675
aF444
aF225
aa(lp213
F1442236582
aF28.2712
aF47.562399999999997
aF20900
aF445
aF225
aa(lp214
F1442236585
aF28.267199999999999
aF47.557899999999997
aF20925
aF446
aF225
aa(lp215
F1442236591
aF28.258199999999999
aF47.547800000000002
aF21025
aF449
aF225
aa(lp216
F1442236606
aF28.236000000000001
aF47.5227
aF21475
aF448
aF225
aa(lp217
F1442236617
aF28.222999999999999
aF47.506100000000004
aF21800
aF445
aF231
aa(lp218
F1442236624
aF28.212599999999998
aF47.488999999999997
aF22200
aF439
aF238
aa(lp219
F1442236627
aF28.209599999999998
aF47.482900000000001
aF22400
aF436
aF241
aa(lp220
F1442236636
aF28.2028
aF47.465800000000002
aF22900
aF427
aF248
aa(lp221
F1442236640
aF28.200900000000001
aF47.459800000000001
aF23050
aF424
aF251
aa(lp222
F1442236649
aF28.196100000000001
aF47.438400000000001
aF23450
aF421
aF258
aa(lp223
F1442236654
aF28.194299999999998
aF47.4283
aF23600
aF421
aF258
aa(lp224
F1442236657
aF28.192699999999999
aF47.4191
aF23700
aF421
aF259
aa(lp225
F1442236660
aF28.191500000000001
aF47.412100000000002
aF23750
aF423
aF259
aa(lp226
F1442236666
aF28.189399999999999
aF47.399299999999997
aF23800
aF427
aF259
aa(lp227
F1442236672
aF28.187100000000001
aF47.385100000000001
aF23825
aF430
aF259
aa(lp228
F1442236676
aF28.186199999999999
aF47.3795
aF23850
aF432
aF259
aa(lp229
F1442236682
aF28.183900000000001
aF47.365299999999998
aF23900
aF436
aF259
aa(lp230
F1442236685
aF28.1828
aF47.3583
aF23925
aF437
aF259
aa(lp231
F1442236691
aF28.180499999999999
aF47.3444
aF23975
aF441
aF259
aa(lp232
F1442236697
aF28.178599999999999
aF47.3324
aF24025
aF443
aF259
aa(lp233
F1442236701
aF28.177099999999999
aF47.323599999999999
aF24075
aF445
aF259
aa(lp234
F1442236706
aF28.1752
aF47.311799999999998
aF24100
aF447
aF259
aa(lp235
F1442236710
aF28.1738
aF47.302900000000001
aF24150
aF449
aF259
aa(lp236
F1442236712
aF28.172699999999999
aF47.295999999999999
aF24200
aF450
aF259
aa(lp237
F1442236721
aF28.1693
aF47.275100000000002
aF24350
aF452
aF259
aa(lp238
F1442236727
aF28.167100000000001
aF47.261600000000001
aF24475
aF452
aF259
aa(lp239
F1442236733
aF28.1648
aF47.247599999999998
aF24625
aF453
aF259
aa(lp240
F1442236737
aF28.163499999999999
aF47.240200000000002
aF24675
aF453
aF259
aa(lp241
F1442236746
aF28.16
aF47.218400000000003
aF24850
aF454
aF259
aa(lp242
F1442236754
aF28.156600000000001
aF47.197800000000001
aF25025
aF456
aF259
aa(lp243
F1442236757
aF28.1556
aF47.191299999999998
aF25100
aF456
aF259
aa(lp244
F1442236760
aF28.154699999999998
aF47.186300000000003
aF25150
aF456
aF259
aa(lp245
F1442236769
aF28.1508
aF47.162500000000001
aF25350
aF457
aF259
aa(lp246
F1442236772
aF28.149699999999999
aF47.155700000000003
aF25425
aF457
aF259
aa(lp247
F1442236781
aF28.1462
aF47.134300000000003
aF25575
aF459
aF259
aa(lp248
F1442236785
aF28.1448
aF47.125999999999998
aF25625
aF459
aF259
aa(lp249
F1442236793
aF28.1416
aF47.106099999999998
aF25800
aF460
aF259
aa(lp250
F1442236796
aF28.1403
aF47.097999999999999
aF25900
aF460
aF259
aa(lp251
F1442236806
aF28.136800000000001
aF47.076799999999999
aF26100
aF459
aF259
aa(lp252
F1442236808
aF28.1355
aF47.069000000000003
aF26175
aF460
aF259
aa(lp253
F1442236817
aF28.132100000000001
aF47.048200000000001
aF26300
aF462
aF259
aa(lp254
F1442236820
aF28.131
aF47.042000000000002
aF26325
aF462
aF259
aa(lp255
F1442236829
aF28.127199999999998
aF47.018900000000002
aF26500
aF464
aF259
aa(lp256
F1442236841
aF28.1234
aF46.995199999999997
aF26625
aF465
aF259
aa(lp257
F1442236843
aF28.121700000000001
aF46.985100000000003
aF26700
aF466
aF259
aa(lp258
F1442236849
aF28.119399999999999
aF46.971299999999999
aF26775
aF467
aF259
aa(lp259
F1442236860
aF28.115300000000001
aF46.9465
aF26950
aF469
aF259
aa(lp260
F1442236866
aF28.1129
aF46.9315
aF27125
aF469
aF259
aa(lp261
F1442236869
aF28.111699999999999
aF46.924700000000001
aF27175
aF468
aF259
aa(lp262
F1442236873
aF28.110499999999998
aF46.917499999999997
aF27250
aF469
aF259
aa(lp263
F1442236881
aF28.1069
aF46.895600000000002
aF27400
aF471
aF259
aa(lp264
F1442236893
aF28.1021
aF46.866999999999997
aF27600
aF471
aF259
aa(lp265
F1442236896
aF28.100999999999999
aF46.859999999999999
aF27625
aF472
aF259
aa(lp266
F1442236905
aF28.0974
aF46.838299999999997
aF27750
aF474
aF259
aa(lp267
F1442236908
aF28.096599999999999
aF46.833300000000001
aF27775
aF474
aF259
aa(lp268
F1442236914
aF28.093699999999998
aF46.816200000000002
aF27900
aF476
aF259
aa(lp269
F1442236920
aF28.091699999999999
aF46.803899999999999
aF28000
aF474
aF259
aa(lp270
F1442236926
aF28.088699999999999
aF46.785400000000003
aF28175
aF473
aF259
aa(lp271
F1442236932
aF28.086400000000001
aF46.771500000000003
aF28350
aF473
aF259
aa(lp272
F1442236941
aF28.082899999999999
aF46.750900000000001
aF28575
aF472
aF259
aa(lp273
F1442236945
aF28.081199999999999
aF46.7408
aF28675
aF471
aF259
aa(lp274
F1442236950
aF28.078900000000001
aF46.726300000000002
aF28825
aF469
aF259
aa(lp275
F1442236956
aF28.076799999999999
aF46.713700000000003
aF28975
aF470
aF259
aa(lp276
F1442236966
aF28.073
aF46.690899999999999
aF29225
aF468
aF259
aa(lp277
F1442236971
aF28.070499999999999
aF46.676200000000001
aF29300
aF468
aF259
aa(lp278
F1442236977
aF28.0687
aF46.665399999999998
aF29325
aF470
aF259
aa(lp279
F1442236986
aF28.064399999999999
aF46.639699999999998
aF29375
aF475
aF259
aa(lp280
F1442237001
aF28.0581
aF46.601599999999998
aF29725
aF475
aF259
aa(lp281
F1442237004
aF28.056799999999999
aF46.594299999999997
aF29775
aF475
aF259
aa(lp282
F1442237014
aF28.053899999999999
aF46.576900000000002
aF29875
aF474
aF259
aa(lp283
F1442237017
aF28.0519
aF46.564700000000002
aF29925
aF473
aF259
aa(lp284
F1442237026
aF28.048200000000001
aF46.542700000000004
aF29975
aF469
aF259
aa(lp285
F1442237032
aF28.0459
aF46.528500000000001
aF29975
aF468
aF259
aa(lp286
F1442237038
aF28.043800000000001
aF46.516199999999998
aF29975
aF467
aF259
aa(lp287
F1442237044
aF28.041
aF46.499600000000001
aF29975
aF463
aF259
aa(lp288
F1442237053
aF28.037500000000001
aF46.478400000000001
aF30000
aF459
aF259
aa(lp289
F1442237056
aF28.036200000000001
aF46.470799999999997
aF30000
aF458
aF259
aa(lp290
F1442237059
aF28.0351
aF46.464500000000001
aF30000
aF458
aF259
aa(lp291
F1442237068
aF28.031400000000001
aF46.442500000000003
aF29975
aF457
aF259
aa(lp292
F1442237074
aF28.029
aF46.428100000000001
aF29975
aF455
aF259
aa(lp293
F1442237080
aF28.026800000000001
aF46.415399999999998
aF29975
aF453
aF259
aa(lp294
F1442237090
aF28.0229
aF46.392200000000003
aF29975
aF452
aF259
aa(lp295
F1442237094
aF28.021999999999998
aF46.386600000000001
aF29975
aF451
aF259
aa(lp296
F1442237099
aF28.020299999999999
aF46.376399999999997
aF29975
aF451
aF259
aa(lp297
F1442237103
aF28.018599999999999
aF46.366700000000002
aF30000
aF451
aF259
aa(lp298
F1442237113
aF28.013400000000001
aF46.336199999999998
aF29975
aF460
aF259
aa(lp299
F1442237122
aF28.009699999999999
aF46.314300000000003
aF29975
aF464
aF259
aa(lp300
F1442237125
aF28.008600000000001
aF46.307499999999997
aF29975
aF465
aF259
aa(lp301
F1442237134
aF28.004899999999999
aF46.285899999999998
aF29975
aF467
aF259
aa(lp302
F1442237138
aF28.003900000000002
aF46.279600000000002
aF29975
aF468
aF259
aa(lp303
F1442237141
aF28.002800000000001
aF46.273299999999999
aF29975
aF468
aF259
aa(lp304
F1442237144
aF28.001200000000001
aF46.264000000000003
aF29975
aF468
aF259
aa(lp305
F1442237153
aF27.997699999999998
aF46.243400000000001
aF29975
aF468
aF259
aa(lp306
F1442237156
aF27.996700000000001
aF46.237299999999998
aF29975
aF468
aF259
aa(lp307
F1442237162
aF27.9941
aF46.221899999999998
aF29975
aF468
aF259
aa(lp308
F1442237168
aF27.991800000000001
aF46.208199999999998
aF29975
aF468
aF259
aa(lp309
F1442237178
aF27.9878
aF46.184600000000003
aF29975
aF467
aF259
aa(lp310
F1442237189
aF27.9831
aF46.156500000000001
aF29975
aF458
aF259
aa(lp311
F1442237195
aF27.981400000000001
aF46.146700000000003
aF30000
aF456
aF259
aa(lp312
F1442237205
aF27.976900000000001
aF46.119900000000001
aF30000
aF452
aF259
aa(lp313
F1442237210
aF27.975200000000001
aF46.109699999999997
aF30000
aF451
aF259
aa(lp314
F1442237214
aF27.973700000000001
aF46.1008
aF30000
aF449
aF259
aa(lp315
F1442237216
aF27.972300000000001
aF46.092599999999997
aF30000
aF449
aF259
aa(lp316
F1442237225
aF27.969100000000001
aF46.073599999999999
aF30000
aF447
aF259
aa(lp317
F1442237230
aF27.967700000000001
aF46.065100000000001
aF29975
aF447
aF259
aa(lp318
F1442237234
aF27.965199999999999
aF46.0505
aF30000
aF447
aF259
aa(lp319
F1442237246
aF27.960699999999999
aF46.023600000000002
aF29975
aF446
aF259
aa(lp320
F1442237249
aF27.959900000000001
aF46.018900000000002
aF29975
aF446
aF259
aa(lp321
F1442237252
aF27.958300000000001
aF46.009599999999999
aF29975
aF446
aF259
aa(lp322
F1442237264
aF27.953600000000002
aF45.982100000000003
aF29975
aF446
aF259
aa(lp323
F1442237270
aF27.9511
aF45.967300000000002
aF29975
aF446
aF259
aa(lp324
F1442237273
aF27.950099999999999
aF45.961300000000001
aF29975
aF446
aF259
aa(lp325
F1442237282
aF27.9466
aF45.9405
aF29975
aF447
aF259
aa(lp326
F1442237285
aF27.9452
aF45.932600000000001
aF29975
aF447
aF259
aa(lp327
F1442237298
aF27.941099999999999
aF45.908200000000001
aF29975
aF447
aF259
aa(lp328
F1442237300
aF27.940300000000001
aF45.903599999999997
aF29975
aF447
aF259
aa(lp329
F1442237306
aF27.9373
aF45.8855
aF29975
aF447
aF259
aa(lp330
F1442237312
aF27.934899999999999
aF45.871299999999998
aF29975
aF447
aF259
aa(lp331
F1442237318
aF27.932500000000001
aF45.857100000000003
aF29975
aF447
aF259
aa(lp332
F1442237325
aF27.9299
aF45.842500000000001
aF30000
aF447
aF259
aa(lp333
F1442237328
aF27.929200000000002
aF45.837699999999998
aF30000
aF447
aF259
aa(lp334
F1442237334
aF27.9267
aF45.823599999999999
aF29975
aF447
aF259
aa(lp335
F1442237340
aF27.924099999999999
aF45.808199999999999
aF29975
aF447
aF259
aa(lp336
F1442237346
aF27.921700000000001
aF45.7941
aF29975
aF448
aF259
aa(lp337
F1442237349
aF27.9209
aF45.7896
aF29975
aF448
aF259
aa(lp338
F1442237361
aF27.915800000000001
aF45.759900000000002
aF29975
aF448
aF259
aa(lp339
F1442237364
aF27.9147
aF45.753300000000003
aF29975
aF448
aF259
aa(lp340
F1442237373
aF27.911000000000001
aF45.731999999999999
aF29975
aF448
aF259
aa(lp341
F1442237376
aF27.909800000000001
aF45.724899999999998
aF29975
aF448
aF259
aa(lp342
F1442237385
aF27.906300000000002
aF45.704799999999999
aF29975
aF449
aF259
aa(lp343
F1442237388
aF27.905100000000001
aF45.697800000000001
aF29975
aF449
aF259
aa(lp344
F1442237397
aF27.901599999999998
aF45.677500000000002
aF29975
aF449
aF259
aa(lp345
F1442237400
aF27.900400000000001
aF45.670900000000003
aF29975
aF448
aF258
aa(lp346
F1442237409
aF27.896000000000001
aF45.650100000000002
aF29975
aF448
aF255
aa(lp347
F1442237413
aF27.893799999999999
aF45.641399999999997
aF29975
aF448
aF253
aa(lp348
F1442237418
aF27.890000000000001
aF45.627899999999997
aF29975
aF448
aF251
aa(lp349
F1442237425
aF27.8857
aF45.614400000000003
aF29975
aF448
aF249
aa(lp350
F1442237429
aF27.883199999999999
aF45.607199999999999
aF29975
aF448
aF248
aa(lp351
F1442237434
aF27.878699999999998
aF45.595199999999998
aF29975
aF447
aF246
aa(lp352
F1442237446
aF27.869199999999999
aF45.573300000000003
aF29975
aF448
aF242
aa(lp353
F1442237455
aF27.8597
aF45.554299999999998
aF29975
aF447
aF239
aa(lp354
F1442237473
aF27.8367
aF45.5167
aF30000
aF447
aF232
aa(lp355
F1442237477
aF27.832899999999999
aF45.511299999999999
aF30000
aF446
aF230
aa(lp356
F1442237482
aF27.824999999999999
aF45.500999999999998
aF30000
aF446
aF228
aa(lp357
F1442237488
aF27.816400000000002
aF45.490400000000001
aF30000
aF447
aF226
aa(lp358
F1442237494
aF27.807099999999998
aF45.479799999999997
aF30000
aF446
aF224
aa(lp359
F1442237500
aF27.7986
aF45.470799999999997
aF30000
aF446
aF222
aa(lp360
F1442237509
aF27.784700000000001
aF45.456299999999999
aF30000
aF446
aF222
aa(lp361
F1442237512
aF27.779800000000002
aF45.451099999999997
aF30000
aF446
aF222
aa(lp362
F1442237518
aF27.771000000000001
aF45.442
aF30000
aF446
aF222
aa(lp363
F1442237521
aF27.766400000000001
aF45.437199999999997
aF30000
aF446
aF222
aa(lp364
F1442237524
aF27.7622
aF45.4328
aF30000
aF446
aF222
aa(lp365
F1442237533
aF27.747699999999998
aF45.417900000000003
aF29975
aF446
aF222
aa(lp366
F1442237542
aF27.734500000000001
aF45.404000000000003
aF29975
aF447
aF222
aa(lp367
F1442237546
aF27.729800000000001
aF45.3992
aF29975
aF447
aF222
aa(lp368
F1442237554
aF27.715299999999999
aF45.384
aF29975
aF447
aF222
aa(lp369
F1442237557
aF27.710699999999999
aF45.379199999999997
aF29975
aF447
aF222
aa(lp370
F1442237563
aF27.701699999999999
aF45.369900000000001
aF30000
aF446
aF222
aa(lp371
F1442237572
aF27.688099999999999
aF45.355800000000002
aF30000
aF446
aF222
aa(lp372
F1442237578
aF27.678699999999999
aF45.345999999999997
aF30000
aF446
aF222
aa(lp373
F1442237581
aF27.6739
aF45.341000000000001
aF30000
aF446
aF222
aa(lp374
F1442237588
aF27.665199999999999
aF45.332000000000001
aF30000
aF446
aF222
aa(lp375
F1442237594
aF27.656199999999998
aF45.322699999999998
aF30000
aF446
aF222
aa(lp376
F1442237597
aF27.651199999999999
aF45.317500000000003
aF30000
aF445
aF222
aa(lp377
F1442237606
aF27.6374
aF45.303199999999997
aF30000
aF445
aF222
aa(lp378
F1442237608
aF27.633900000000001
aF45.299500000000002
aF30000
aF445
aF222
aa(lp379
F1442237612
aF27.628499999999999
aF45.293999999999997
aF30000
aF445
aF222
aa(lp380
F1442237618
aF27.619199999999999
aF45.284300000000002
aF30000
aF444
aF222
aa(lp381
F1442237623
aF27.610199999999999
aF45.275100000000002
aF30025
aF444
aF222
aa(lp382
F1442237633
aF27.5961
aF45.260599999999997
aF30000
aF443
aF222
aa(lp383
F1442237636
aF27.592199999999998
aF45.256500000000003
aF30000
aF443
aF222
aa(lp384
F1442237642
aF27.582799999999999
aF45.246699999999997
aF30000
aF443
aF222
aa(lp385
F1442237648
aF27.573499999999999
aF45.237099999999998
aF30025
aF442
aF222
aa(lp386
F1442237651
aF27.568899999999999
aF45.232300000000002
aF30025
aF442
aF223
aa(lp387
F1442237660
aF27.555599999999998
aF45.217700000000001
aF30000
aF441
aF225
aa(lp388
F1442237666
aF27.5471
aF45.207799999999999
aF30000
aF441
aF226
aa(lp389
F1442237672
aF27.538599999999999
aF45.197899999999997
aF30000
aF440
aF226
aa(lp390
F1442237678
aF27.530100000000001
aF45.188099999999999
aF30000
aF440
aF226
aa(lp391
F1442237681
aF27.525700000000001
aF45.183
aF30000
aF440
aF226
aa(lp392
F1442237685
aF27.521599999999999
aF45.178199999999997
aF30000
aF440
aF226
aa(lp393
F1442237687
aF27.517199999999999
aF45.173099999999998
aF30000
aF440
aF226
aa(lp394
F1442237696
aF27.5045
aF45.1584
aF29975
aF440
aF226
aa(lp395
F1442237699
aF27.4999
aF45.153100000000002
aF29975
aF440
aF226
aa(lp396
F1442237706
aF27.491099999999999
aF45.142800000000001
aF29975
aF440
aF226
aa(lp397
F1442237708
aF27.487200000000001
aF45.138300000000001
aF29975
aF440
aF226
aa(lp398
F1442237717
aF27.4742
aF45.123199999999997
aF29975
aF439
aF225
aa(lp399
F1442237729
aF27.4573
aF45.1036
aF29950
aF440
aF226
aa(lp400
F1442237732
aF27.452999999999999
aF45.098599999999998
aF29950
aF440
aF226
aa(lp401
F1442237741
aF27.439599999999999
aF45.083100000000002
aF29950
aF440
aF226
aa(lp402
F1442237744
aF27.435400000000001
aF45.078200000000002
aF29950
aF440
aF226
aa(lp403
F1442237747
aF27.4312
aF45.073399999999999
aF29950
aF440
aF226
aa(lp404
F1442237756
aF27.418199999999999
aF45.058300000000003
aF29950
aF440
aF226
aa(lp405
F1442237762
aF27.4102
aF45.049100000000003
aF29950
aF440
aF226
aa(lp406
F1442237768
aF27.401199999999999
aF45.038499999999999
aF29950
aF440
aF226
aa(lp407
F1442237774
aF27.392499999999998
aF45.028399999999998
aF29950
aF441
aF226
aa(lp408
F1442237786
aF27.376000000000001
aF45.009300000000003
aF29950
aF440
aF226
aa(lp409
F1442237789
aF27.371600000000001
aF45.004100000000001
aF29950
aF440
aF226
aa(lp410
F1442237793
aF27.3674
aF44.999299999999998
aF29975
aF441
aF225
aa(lp411
F1442237805
aF27.349599999999999
aF44.978700000000003
aF29975
aF441
aF225
aa(lp412
F1442237808
aF27.345300000000002
aF44.973700000000001
aF29975
aF441
aF225
aa(lp413
F1442237814
aF27.3368
aF44.963900000000002
aF29975
aF441
aF225
aa(lp414
F1442237820
aF27.328299999999999
aF44.954099999999997
aF29975
aF441
aF225
aa(lp415
F1442237833
aF27.311399999999999
aF44.9345
aF29975
aF441
aF225
aa(lp416
F1442237835
aF27.306899999999999
aF44.929400000000001
aF29975
aF441
aF225
aa(lp417
F1442237844
aF27.2943
aF44.914700000000003
aF29975
aF441
aF225
aa(lp418
F1442237850
aF27.285
aF44.9041
aF29975
aF441
aF225
aa(lp419
F1442237857
aF27.276800000000001
aF44.894500000000001
aF29975
aF441
aF225
aa(lp420
F1442237865
aF27.263999999999999
aF44.8797
aF29975
aF441
aF225
aa(lp421
F1442237868
aF27.259699999999999
aF44.874899999999997
aF29975
aF441
aF225
aa(lp422
F1442237877
aF27.246099999999998
aF44.859200000000001
aF29975
aF441
aF225
aa(lp423
F1442237880
aF27.241700000000002
aF44.854100000000003
aF29975
aF441
aF225
aa(lp424
F1442237883
aF27.237300000000001
aF44.848999999999997
aF29975
aF441
aF225
aa(lp425
F1442237892
aF27.224699999999999
aF44.834499999999998
aF29975
aF441
aF225
aa(lp426
F1442237902
aF27.211600000000001
aF44.819499999999998
aF30000
aF442
aF225
aa(lp427
F1442237904
aF27.207799999999999
aF44.814999999999998
aF30000
aF442
aF225
aa(lp428
F1442237913
aF27.194900000000001
aF44.8001
aF30000
aF441
aF225
aa(lp429
F1442237920
aF27.1859
aF44.7898
aF30000
aF441
aF225
aa(lp430
F1442237925
aF27.1769
aF44.779400000000003
aF30000
aF441
aF225
aa(lp431
F1442237938
aF27.159600000000001
aF44.759599999999999
aF29975
aF442
aF225
aa(lp432
F1442237941
aF27.1555
aF44.754800000000003
aF30000
aF442
aF225
aa(lp433
F1442237944
aF27.151
aF44.749699999999997
aF30000
aF442
aF225
aa(lp434
F1442237950
aF27.142600000000002
aF44.740000000000002
aF30000
aF441
aF225
aa(lp435
F1442237956
aF27.135200000000001
aF44.731499999999997
aF30000
aF441
aF225
aa(lp436
F1442237962
aF27.125499999999999
aF44.720399999999998
aF30000
aF441
aF225
aa(lp437
F1442237968
aF27.116399999999999
aF44.709800000000001
aF30000
aF441
aF225
aa(lp438
F1442237971
aF27.1127
aF44.705599999999997
aF30000
aF441
aF225
aa(lp439
F1442237978
aF27.103999999999999
aF44.695700000000002
aF30000
aF441
aF225
aa(lp440
F1442237986
aF27.090699999999998
aF44.680399999999999
aF30000
aF441
aF225
aa(lp441
F1442237989
aF27.086400000000001
aF44.675400000000003
aF30000
aF441
aF225
aa(lp442
F1442237993
aF27.0823
aF44.670699999999997
aF30000
aF441
aF225
aa(lp443
F1442238001
aF27.069299999999998
aF44.655799999999999
aF30000
aF441
aF225
aa(lp444
F1442238004
aF27.065100000000001
aF44.6509
aF30000
aF441
aF225
aa(lp445
F1442238010
aF27.0564
aF44.640999999999998
aF30000
aF441
aF225
aa(lp446
F1442238017
aF27.047699999999999
aF44.631
aF29975
aF442
aF225
aa(lp447
F1442238025
aF27.0349
aF44.616300000000003
aF29975
aF441
aF225
aa(lp448
F1442238031
aF27.026199999999999
aF44.606400000000001
aF29975
aF441
aF225
aa(lp449
F1442238037
aF27.017099999999999
aF44.5959
aF29975
aF441
aF225
aa(lp450
F1442238041
aF27.013300000000001
aF44.5916
aF29975
aF442
aF225
aa(lp451
F1442238047
aF27.0044
aF44.581400000000002
aF29975
aF442
aF225
aa(lp452
F1442238053
aF26.995899999999999
aF44.571599999999997
aF29975
aF442
aF225
aa(lp453
F1442238058
aF26.987400000000001
aF44.561900000000001
aF29975
aF441
aF225
aa(lp454
F1442238066
aF26.9758
aF44.5486
aF30000
aF441
aF225
aa(lp455
F1442238072
aF26.967199999999998
aF44.538699999999999
aF30000
aF441
aF225
aa(lp456
F1442238078
aF26.9588
aF44.5291
aF30000
aF441
aF225
aa(lp457
F1442238085
aF26.9497
aF44.518799999999999
aF30000
aF441
aF225
aa(lp458
F1442238090
aF26.941600000000001
aF44.509399999999999
aF30000
aF441
aF225
aa(lp459
F1442238093
aF26.936900000000001
aF44.504100000000001
aF30000
aF441
aF225
aa(lp460
F1442238096
aF26.932500000000001
aF44.499000000000002
aF30000
aF441
aF225
aa(lp461
F1442238108
aF26.915400000000002
aF44.479500000000002
aF30000
aF441
aF225
aa(lp462
F1442238114
aF26.9068
aF44.469700000000003
aF29975
aF441
aF225
aa(lp463
F1442238117
aF26.9024
aF44.464700000000001
aF29975
aF441
aF225
aa(lp464
F1442238130
aF26.885300000000001
aF44.445099999999996
aF30000
aF442
aF225
aa(lp465
F1442238132
aF26.881
aF44.440300000000001
aF29975
aF441
aF225
aa(lp466
F1442238141
aF26.868200000000002
aF44.425600000000003
aF30000
aF441
aF225
aa(lp467
F1442238145
aF26.863700000000001
aF44.420499999999997
aF29975
aF441
aF225
aa(lp468
F1442238147
aF26.859300000000001
aF44.415399999999998
aF30000
aF441
aF225
aa(lp469
F1442238157
aF26.846499999999999
aF44.400799999999997
aF30000
aF441
aF225
aa(lp470
F1442238166
aF26.833100000000002
aF44.385399999999997
aF30000
aF441
aF225
aa(lp471
F1442238169
aF26.828700000000001
aF44.380499999999998
aF29975
aF441
aF225
aa(lp472
F1442238172
aF26.8249
aF44.376100000000001
aF29975
aF441
aF225
aa(lp473
F1442238181
aF26.811800000000002
aF44.361199999999997
aF29975
aF441
aF225
aa(lp474
F1442238187
aF26.8034
aF44.351599999999998
aF29975
aF441
aF225
aa(lp475
F1442238202
aF26.781700000000001
aF44.326799999999999
aF29975
aF442
aF225
aa(lp476
F1442238205
aF26.776800000000001
aF44.321199999999997
aF29950
aF442
aF225
aa(lp477
F1442238208
aF26.772400000000001
aF44.316299999999998
aF29975
aF442
aF225
aa(lp478
F1442238211
aF26.768699999999999
aF44.311999999999998
aF29950
aF443
aF225
aa(lp479
F1442238220
aF26.755199999999999
aF44.296700000000001
aF29975
aF443
aF225
aa(lp480
F1442238230
aF26.7424
aF44.2821
aF29950
aF444
aF225
aa(lp481
F1442238232
aF26.738
aF44.277099999999997
aF29950
aF444
aF225
aa(lp482
F1442238241
aF26.724799999999998
aF44.262099999999997
aF29975
aF444
aF225
aa(lp483
F1442238247
aF26.715800000000002
aF44.251899999999999
aF29950
aF444
aF225
aa(lp484
F1442238253
aF26.7075
aF44.2425
aF29975
aF444
aF225
aa(lp485
F1442238257
aF26.7028
aF44.237099999999998
aF29975
aF445
aF225
aa(lp486
F1442238266
aF26.690000000000001
aF44.2226
aF29975
aF445
aF225
aa(lp487
F1442238274
aF26.676600000000001
aF44.2074
aF29975
aF445
aF225
aa(lp488
F1442238277
aF26.6721
aF44.202199999999998
aF29975
aF445
aF225
aa(lp489
F1442238289
aF26.654900000000001
aF44.1828
aF29975
aF446
aF225
aa(lp490
F1442238293
aF26.650400000000001
aF44.177700000000002
aF29975
aF446
aF225
aa(lp491
F1442238295
aF26.645900000000001
aF44.172699999999999
aF30000
aF446
aF225
aa(lp492
F1442238305
aF26.6327
aF44.157600000000002
aF30000
aF446
aF225
aa(lp493
F1442238311
aF26.624199999999998
aF44.148000000000003
aF30000
aF446
aF225
aa(lp494
F1442238320
aF26.6112
aF44.133200000000002
aF30000
aF446
aF225
aa(lp495
F1442238326
aF26.6023
aF44.123199999999997
aF29975
aF446
aF225
aa(lp496
F1442238329
aF26.598099999999999
aF44.118299999999998
aF29975
aF447
aF225
aa(lp497
F1442238338
aF26.5852
aF44.103700000000003
aF30000
aF446
aF225
aa(lp498
F1442238341
aF26.580400000000001
aF44.098199999999999
aF30000
aF446
aF225
aa(lp499
F1442238344
aF26.575900000000001
aF44.093200000000003
aF30000
aF446
aF225
aa(lp500
F1442238353
aF26.562799999999999
aF44.078400000000002
aF30000
aF446
aF225
aa(lp501
F1442238356
aF26.559000000000001
aF44.073999999999998
aF30000
aF446
aF225
aa(lp502
F1442238365
aF26.545999999999999
aF44.0593
aF30000
aF446
aF225
aa(lp503
F1442238369
aF26.5413
aF44.053899999999999
aF30000
aF446
aF225
aa(lp504
F1442238374
aF26.533100000000001
aF44.044699999999999
aF30000
aF446
aF225
aa(lp505
F1442238380
aF26.523299999999999
aF44.0336
aF30000
aF446
aF225
aa(lp506
F1442238386
aF26.514900000000001
aF44.024000000000001
aF30000
aF446
aF225
aa(lp507
F1442238389
aF26.5106
aF44.019199999999998
aF30000
aF445
aF225
aa(lp508
F1442238393
aF26.507300000000001
aF44.015500000000003
aF30025
aF445
aF225
aa(lp509
F1442238395
aF26.502800000000001
aF44.010399999999997
aF30025
aF444
aF225
aa(lp510
F1442238405
aF26.4894
aF43.995199999999997
aF30025
aF444
aF225
aa(lp511
F1442238410
aF26.480799999999999
aF43.985500000000002
aF30000
aF444
aF225
aa(lp512
F1442238416
aF26.472300000000001
aF43.975900000000003
aF30000
aF444
aF225
aa(lp513
F1442238422
aF26.4633
aF43.965800000000002
aF30000
aF444
aF225
aa(lp514
F1442238431
aF26.449400000000001
aF43.950099999999999
aF30000
aF444
aF225
aa(lp515
F1442238435
aF26.445
aF43.945099999999996
aF30000
aF444
aF225
aa(lp516
F1442238443
aF26.432099999999998
aF43.930599999999998
aF30000
aF444
aF225
aa(lp517
F1442238446
aF26.427800000000001
aF43.925800000000002
aF30000
aF443
aF225
aa(lp518
F1442238455
aF26.414200000000001
aF43.910299999999999
aF30000
aF443
aF225
aa(lp519
F1442238467
aF26.397400000000001
aF43.891399999999997
aF30000
aF442
aF225
aa(lp520
F1442238470
aF26.392700000000001
aF43.886099999999999
aF30000
aF442
aF225
aa(lp521
F1442238476
aF26.383700000000001
aF43.876100000000001
aF30000
aF441
aF225
aa(lp522
F1442238482
aF26.375499999999999
aF43.866799999999998
aF30000
aF441
aF225
aa(lp523
F1442238491
aF26.3629
aF43.852499999999999
aF30000
aF441
aF225
aa(lp524
F1442238497
aF26.356400000000001
aF43.844900000000003
aF30000
aF440
aF226
aa(lp525
F1442238500
aF26.3507
aF43.838000000000001
aF30000
aF440
aF227
aa(lp526
F1442238505
aF26.346599999999999
aF43.832900000000002
aF30000
aF441
aF228
aa(lp527
F1442238512
aF26.333300000000001
aF43.815600000000003
aF29975
aF440
aF230
aa(lp528
F1442238516
aF26.329599999999999
aF43.810499999999998
aF29975
aF440
aF231
aa(lp529
F1442238525
aF26.318200000000001
aF43.7941
aF29975
aF439
aF233
aa(lp530
F1442238531
aF26.312200000000001
aF43.784999999999997
aF29975
aF439
aF234
aa(lp531
F1442238534
aF26.308599999999998
aF43.779400000000003
aF29975
aF438
aF234
aa(lp532
F1442238537
aF26.303999999999998
aF43.772100000000002
aF29975
aF438
aF235
aa(lp533
F1442238549
aF26.291799999999999
aF43.751199999999997
aF29975
aF438
aF237
aa(lp534
F1442238555
aF26.285
aF43.738900000000001
aF29975
aF437
aF239
aa(lp535
F1442238558
aF26.281199999999998
aF43.731499999999997
aF29975
aF437
aF240
aa(lp536
F1442238561
aF26.278500000000001
aF43.726300000000002
aF29975
aF437
aF240
aa(lp537
F1442238570
aF26.269600000000001
aF43.707799999999999
aF29975
aF436
aF242
aa(lp538
F1442238573
aF26.2668
aF43.701900000000002
aF29975
aF436
aF243
aa(lp539
F1442238579
aF26.261900000000001
aF43.690600000000003
aF29975
aF436
aF244
aa(lp540
F1442238585
aF26.2563
aF43.677399999999999
aF29975
aF436
aF245
aa(lp541
F1442238595
aF26.248799999999999
aF43.659100000000002
aF29975
aF436
aF245
aa(lp542
F1442238597
aF26.246600000000001
aF43.653599999999997
aF29975
aF436
aF245
aa(lp543
F1442238603
aF26.241399999999999
aF43.640999999999998
aF29975
aF436
aF245
aa(lp544
F1442238609
aF26.236000000000001
aF43.627899999999997
aF29975
aF435
aF245
aa(lp545
F1442238618
aF26.229099999999999
aF43.6111
aF29975
aF436
aF245
aa(lp546
F1442238622
aF26.225899999999999
aF43.603299999999997
aF29975
aF436
aF245
aa(lp547
F1442238630
aF26.218399999999999
aF43.584899999999998
aF29975
aF436
aF245
aa(lp548
F1442238633
aF26.215900000000001
aF43.579000000000001
aF29975
aF436
aF245
aa(lp549
F1442238645
aF26.2058
aF43.554499999999997
aF29975
aF435
aF245
aa(lp550
F1442238654
aF26.1982
aF43.536099999999998
aF29975
aF435
aF245
aa(lp551
F1442238658
aF26.195599999999999
aF43.529800000000002
aF29975
aF435
aF245
aa(lp552
F1442238664
aF26.1904
aF43.517200000000003
aF29975
aF434
aF245
aa(lp553
F1442238669
aF26.185600000000001
aF43.505499999999998
aF29975
aF435
aF245
aa(lp554
F1442238675
aF26.180499999999999
aF43.493000000000002
aF29975
aF435
aF245
aa(lp555
F1442238682
aF26.1753
aF43.480699999999999
aF29975
aF435
aF245
aa(lp556
F1442238684
aF26.172799999999999
aF43.474499999999999
aF29975
aF435
aF245
aa(lp557
F1442238694
aF26.165199999999999
aF43.456099999999999
aF29975
aF435
aF245
aa(lp558
F1442238697
aF26.162299999999998
aF43.449100000000001
aF29975
aF435
aF245
aa(lp559
F1442238703
aF26.1572
aF43.436900000000001
aF29950
aF436
aF245
aa(lp560
F1442238715
aF26.147500000000001
aF43.413200000000003
aF29950
aF436
aF245
aa(lp561
F1442238718
aF26.144600000000001
aF43.406300000000002
aF29950
aF436
aF245
aa(lp562
F1442238721
aF26.142199999999999
aF43.400199999999998
aF29950
aF436
aF245
aa(lp563
F1442238724
aF26.139500000000002
aF43.393799999999999
aF29975
aF435
aF245
aa(lp564
F1442238730
aF26.134599999999999
aF43.382199999999997
aF29975
aF435
aF245
aa(lp565
F1442238739
aF26.127099999999999
aF43.363799999999998
aF29975
aF435
aF245
aa(lp566
F1442238742
aF26.124400000000001
aF43.357399999999998
aF29975
aF435
aF245
aa(lp567
F1442238751
aF26.117100000000001
aF43.339500000000001
aF30000
aF435
aF245
aa(lp568
F1442238757
aF26.111999999999998
aF43.327300000000001
aF30000
aF435
aF245
aa(lp569
F1442238763
aF26.1066
aF43.314300000000003
aF30000
aF435
aF245
aa(lp570
F1442238766
aF26.104099999999999
aF43.308300000000003
aF29975
aF435
aF245
aa(lp571
F1442238772
aF26.099
aF43.295900000000003
aF30000
aF435
aF245
aa(lp572
F1442238781
aF26.0913
aF43.2774
aF30000
aF434
aF245
aa(lp573
F1442238787
aF26.086200000000002
aF43.2652
aF30000
aF434
aF245
aa(lp574
F1442238791
aF26.084099999999999
aF43.259999999999998
aF30000
aF434
aF245
aa(lp575
F1442238796
aF26.078800000000001
aF43.247100000000003
aF30000
aF434
aF245
aa(lp576
F1442238805
aF26.071000000000002
aF43.228499999999997
aF30000
aF434
aF245
aa(lp577
F1442238811
aF26.066099999999999
aF43.2166
aF30000
aF434
aF245
aa(lp578
F1442238820
aF26.058199999999999
aF43.197600000000001
aF30000
aF434
aF245
aa(lp579
F1442238827
aF26.0533
aF43.1858
aF30000
aF434
aF245
aa(lp580
F1442238829
aF26.050799999999999
aF43.179600000000001
aF29975
aF434
aF245
aa(lp581
F1442238835
aF26.0457
aF43.167299999999997
aF29975
aF434
aF245
aa(lp582
F1442238838
aF26.043199999999999
aF43.1614
aF29975
aF434
aF245
aa(lp583
F1442238847
aF26.035599999999999
aF43.143099999999997
aF29975
aF434
aF245
aa(lp584
F1442238850
aF26.0335
aF43.137999999999998
aF29975
aF434
aF245
aa(lp585
F1442238853
aF26.0304
aF43.130499999999998
aF29975
aF434
aF245
aa(lp586
F1442238866
aF26.020199999999999
aF43.106000000000002
aF29975
aF434
aF245
aa(lp587
F1442238869
aF26.017499999999998
aF43.099699999999999
aF29975
aF434
aF245
aa(lp588
F1442238875
aF26.0123
aF43.087200000000003
aF29975
aF434
aF245
aa(lp589
F1442238878
aF26.009899999999998
aF43.081499999999998
aF29975
aF434
aF245
aa(lp590
F1442238887
aF26.002300000000002
aF43.063200000000002
aF29975
aF434
aF245
aa(lp591
F1442238890
aF25.9998
aF43.057200000000002
aF29975
aF434
aF245
aa(lp592
F1442238893
aF25.9971
aF43.050600000000003
aF29975
aF434
aF245
aa(lp593
F1442238896
aF25.994499999999999
aF43.044400000000003
aF29975
aF434
aF245
aa(lp594
F1442238902
aF25.989699999999999
aF43.033000000000001
aF29975
aF434
aF245
aa(lp595
F1442238911
aF25.981999999999999
aF43.014499999999998
aF29975
aF434
aF245
aa(lp596
F1442238923
aF25.971900000000002
aF42.990099999999998
aF29975
aF434
aF245
aa(lp597
F1442238926
aF25.969000000000001
aF42.9833
aF29975
aF434
aF245
aa(lp598
F1442238935
aF25.961600000000001
aF42.965499999999999
aF29975
aF434
aF245
aa(lp599
F1442238938
aF25.959
aF42.959299999999999
aF29975
aF434
aF245
aa(lp600
F1442238947
aF25.9512
aF42.940800000000003
aF29975
aF434
aF245
aa(lp601
F1442238950
aF25.948799999999999
aF42.935000000000002
aF30000
aF434
aF245
aa(lp602
F1442238953
aF25.946300000000001
aF42.928899999999999
aF30000
aF435
aF245
aa(lp603
F1442238959
aF25.940899999999999
aF42.915999999999997
aF29975
aF434
aF245
aa(lp604
F1442238962
aF25.938300000000002
aF42.909700000000001
aF29975
aF434
aF245
aa(lp605
F1442238968
aF25.933199999999999
aF42.8977
aF29975
aF434
aF245
aa(lp606
F1442238974
aF25.928100000000001
aF42.885300000000001
aF29975
aF434
aF245
aa(lp607
F1442238983
aF25.9208
aF42.867800000000003
aF29975
aF434
aF245
aa(lp608
F1442238987
aF25.918099999999999
aF42.861499999999999
aF29975
aF434
aF245
aa(lp609
F1442238989
aF25.915500000000002
aF42.855200000000004
aF29975
aF435
aF245
aa(lp610
F1442238995
aF25.9101
aF42.842199999999998
aF29975
aF435
aF245
aa(lp611
F1442238999
aF25.907800000000002
aF42.837000000000003
aF29975
aF435
aF245
aa(lp612
F1442239005
aF25.902699999999999
aF42.8247
aF29975
aF436
aF245
aa(lp613
F1442239010
aF25.897400000000001
aF42.811999999999998
aF29975
aF436
aF245
aa(lp614
F1442239013
aF25.8948
aF42.805799999999998
aF29975
aF436
aF245
aa(lp615
F1442239019
aF25.889700000000001
aF42.793799999999997
aF29975
aF436
aF245
aa(lp616
F1442239026
aF25.884599999999999
aF42.781500000000001
aF29975
aF436
aF245
aa(lp617
F1442239029
aF25.882000000000001
aF42.775399999999998
aF29975
aF436
aF245
aa(lp618
F1442239038
aF25.874400000000001
aF42.757199999999997
aF29975
aF436
aF245
aa(lp619
F1442239047
aF25.866599999999998
aF42.738599999999998
aF29975
aF437
aF245
aa(lp620
F1442239050
aF25.864000000000001
aF42.732399999999998
aF29975
aF436
aF245
aa(lp621
F1442239053
aF25.861599999999999
aF42.726599999999998
aF29975
aF436
aF245
aa(lp622
F1442239062
aF25.853899999999999
aF42.708199999999998
aF29975
aF436
aF245
aa(lp623
F1442239071
aF25.846
aF42.689599999999999
aF29975
aF437
aF245
aa(lp624
F1442239077
aF25.840800000000002
aF42.677199999999999
aF29975
aF437
aF245
aa(lp625
F1442239083
aF25.8354
aF42.664200000000001
aF29975
aF437
aF245
aa(lp626
F1442239089
aF25.8306
aF42.652900000000002
aF30000
aF436
aF245
aa(lp627
F1442239095
aF25.825099999999999
aF42.639800000000001
aF30000
aF437
aF245
aa(lp628
F1442239098
aF25.822500000000002
aF42.633600000000001
aF30000
aF437
aF245
aa(lp629
F1442239111
aF25.8111
aF42.606699999999996
aF30000
aF437
aF245
aa(lp630
F1442239117
aF25.8064
aF42.595199999999998
aF30000
aF437
aF245
aa(lp631
F1442239126
aF25.7986
aF42.576799999999999
aF30000
aF436
aF245
aa(lp632
F1442239129
aF25.796099999999999
aF42.570799999999998
aF30000
aF436
aF245
aa(lp633
F1442239135
aF25.790500000000002
aF42.557699999999997
aF30000
aF437
aF244
aa(lp634
F1442239141
aF25.785499999999999
aF42.5458
aF30000
aF437
aF244
aa(lp635
F1442239144
aF25.783300000000001
aF42.540500000000002
aF30000
aF437
aF244
aa(lp636
F1442239153
aF25.775300000000001
aF42.521500000000003
aF30000
aF437
aF244
aa(lp637
F1442239159
aF25.77
aF42.509099999999997
aF30000
aF437
aF244
aa(lp638
F1442239165
aF25.765000000000001
aF42.497100000000003
aF30000
aF437
aF244
aa(lp639
F1442239168
aF25.7622
aF42.4908
aF30000
aF437
aF244
aa(lp640
F1442239174
aF25.757100000000001
aF42.478499999999997
aF30000
aF437
aF244
aa(lp641
F1442239183
aF25.749400000000001
aF42.4604
aF30000
aF437
aF244
aa(lp642
F1442239190
aF25.744199999999999
aF42.448099999999997
aF30000
aF437
aF244
aa(lp643
F1442239199
aF25.7363
aF42.429600000000001
aF29975
aF437
aF244
aa(lp644
F1442239202
aF25.733599999999999
aF42.423200000000001
aF29975
aF437
aF244
aa(lp645
F1442239211
aF25.725999999999999
aF42.405200000000001
aF29975
aF437
aF244
aa(lp646
F1442239214
aF25.723400000000002
aF42.399000000000001
aF29975
aF437
aF244
aa(lp647
F1442239223
aF25.715599999999998
aF42.380600000000001
aF29975
aF437
aF244
aa(lp648
F1442239226
aF25.713100000000001
aF42.374699999999997
aF29975
aF437
aF244
aa(lp649
F1442239229
aF25.7104
aF42.368299999999998
aF29975
aF437
aF244
aa(lp650
F1442239239
aF25.7027
aF42.350200000000001
aF29975
aF437
aF244
aa(lp651
F1442239242
aF25.699999999999999
aF42.343600000000002
aF30000
aF436
aF245
aa(lp652
F1442239244
aF25.697299999999998
aF42.337400000000002
aF29975
aF436
aF245
aa(lp653
F1442239250
aF25.692399999999999
aF42.325600000000001
aF29975
aF436
aF245
aa(lp654
F1442239253
aF25.689800000000002
aF42.319400000000002
aF29975
aF436
aF245
aa(lp655
F1442239259
aF25.6845
aF42.306800000000003
aF29975
aF437
aF244
aa(lp656
F1442239265
aF25.679500000000001
aF42.295099999999998
aF29975
aF437
aF244
aa(lp657
F1442239269
aF25.677
aF42.289200000000001
aF29975
aF437
aF244
aa(lp658
F1442239274
aF25.671800000000001
aF42.276899999999998
aF29975
aF437
aF244
aa(lp659
F1442239283
aF25.664000000000001
aF42.258699999999997
aF29975
aF437
aF244
aa(lp660
F1442239286
aF25.661000000000001
aF42.2517
aF29975
aF437
aF244
aa(lp661
F1442239289
aF25.6586
aF42.245800000000003
aF29975
aF436
aF244
aa(lp662
F1442239298
aF25.6511
aF42.228200000000001
aF29975
aF436
aF244
aa(lp663
F1442239307
aF25.6433
aF42.209800000000001
aF30000
aF436
aF244
aa(lp664
F1442239310
aF25.6404
aF42.203099999999999
aF30000
aF436
aF244
aa(lp665
F1442239319
aF25.632899999999999
aF42.185400000000001
aF30000
aF436
aF244
aa(lp666
F1442239325
aF25.627300000000002
aF42.172400000000003
aF29975
aF437
aF244
aa(lp667
F1442239331
aF25.622299999999999
aF42.160600000000002
aF29975
aF437
aF244
aa(lp668
F1442239334
aF25.619700000000002
aF42.154600000000002
aF29975
aF437
aF244
aa(lp669
F1442239340
aF25.614799999999999
aF42.142800000000001
aF29975
aF437
aF244
aa(lp670
F1442239350
aF25.6069
aF42.124400000000001
aF29975
aF437
aF244
aa(lp671
F1442239355
aF25.601800000000001
aF42.112400000000001
aF29975
aF437
aF244
aa(lp672
F1442239359
aF25.598700000000001
aF42.105200000000004
aF29975
aF437
aF244
aa(lp673
F1442239364
aF25.593599999999999
aF42.093200000000003
aF29975
aF437
aF244
aa(lp674
F1442239370
aF25.5885
aF42.081200000000003
aF29975
aF437
aF244
aa(lp675
F1442239379
aF25.5809
aF42.063299999999998
aF29975
aF437
aF244
aa(lp676
F1442239386
aF25.575500000000002
aF42.050699999999999
aF29975
aF437
aF244
aa(lp677
F1442239395
aF25.567599999999999
aF42.031999999999996
aF29975
aF437
aF244
aa(lp678
F1442239398
aF25.565000000000001
aF42.026000000000003
aF29975
aF437
aF244
aa(lp679
F1442239401
aF25.562200000000001
aF42.019500000000001
aF29975
aF437
aF244
aa(lp680
F1442239410
aF25.554600000000001
aF42.001800000000003
aF29975
aF437
aF244
aa(lp681
F1442239419
aF25.546800000000001
aF41.983499999999999
aF29975
aF437
aF244
aa(lp682
F1442239425
aF25.541399999999999
aF41.970999999999997
aF29975
aF437
aF244
aa(lp683
F1442239431
aF25.536999999999999
aF41.960700000000003
aF29975
aF437
aF244
aa(lp684
F1442239438
aF25.530899999999999
aF41.946399999999997
aF29975
aF437
aF244
aa(lp685
F1442239443
aF25.5258
aF41.9345
aF29975
aF438
aF244
aa(lp686
F1442239449
aF25.520399999999999
aF41.921900000000001
aF29975
aF438
aF244
aa(lp687
F1442239455
aF25.5151
aF41.909599999999998
aF29975
aF438
aF244
aa(lp688
F1442239461
aF25.509899999999998
aF41.897300000000001
aF29975
aF438
aF244
aa(lp689
F1442239464
aF25.507300000000001
aF41.891300000000001
aF29975
aF438
aF244
aa(lp690
F1442239473
aF25.499600000000001
aF41.873199999999997
aF30000
aF438
aF244
aa(lp691
F1442239480
aF25.494299999999999
aF41.860799999999998
aF29975
aF438
aF244
aa(lp692
F1442239494
aF25.481300000000001
aF41.830500000000001
aF30000
aF438
aF244
aa(lp693
F1442239499
aF25.4785
aF41.823900000000002
aF30000
aF438
aF244
aa(lp694
F1442239505
aF25.473099999999999
aF41.811300000000003
aF29975
aF439
aF244
aa(lp695
F1442239509
aF25.468
aF41.799399999999999
aF29975
aF439
aF244
aa(lp696
F1442239515
aF25.462599999999998
aF41.786999999999999
aF29975
aF439
aF244
aa(lp697
F1442239521
aF25.457599999999999
aF41.775199999999998
aF29975
aF438
aF244
aa(lp698
F1442239530
aF25.4496
aF41.756799999999998
aF30000
aF438
aF244
aa(lp699
F1442239539
aF25.442900000000002
aF41.740900000000003
aF30000
aF439
aF244
aa(lp700
F1442239543
aF25.440100000000001
aF41.734499999999997
aF30000
aF439
aF244
aa(lp701
F1442239549
aF25.435099999999998
aF41.722799999999999
aF30000
aF439
aF244
aa(lp702
F1442239554
aF25.428899999999999
aF41.708399999999997
aF30000
aF439
aF244
aa(lp703
F1442239580
aF25.396599999999999
aF41.6738
aF30000
aF439
aF224
aa(lp704
F1442239592
aF25.379200000000001
aF41.661299999999997
aF30000
aF439
aF213
aa(lp705
F1442239604
aF25.361799999999999
aF41.648899999999998
aF30000
aF439
aF213
aa(lp706
F1442239616
aF25.3445
aF41.636400000000002
aF30000
aF439
aF213
aa(lp707
F1442239628
aF25.327100000000002
aF41.623899999999999
aF30000
aF439
aF213
aa(lp708
F1442239640
aF25.309699999999999
aF41.611400000000003
aF30000
aF439
aF213
aa(lp709
F1442239652
aF25.292300000000001
aF41.5989
aF30000
aF439
aF213
aa(lp710
F1442239664
aF25.274999999999999
aF41.586500000000001
aF30000
aF439
aF213
aa(lp711
F1442239676
aF25.2576
aF41.573999999999998
aF30000
aF439
aF213
aa(lp712
F1442239688
aF25.240200000000002
aF41.561500000000002
aF30000
aF439
aF213
aa(lp713
F1442239700
aF25.222799999999999
aF41.548999999999999
aF30000
aF439
aF213
aa(lp714
F1442239712
aF25.205500000000001
aF41.5366
aF30000
aF439
aF213
aa(lp715
F1442239724
aF25.188099999999999
aF41.524099999999997
aF30000
aF439
aF213
aa(lp716
F1442239736
aF25.1707
aF41.511600000000001
aF30000
aF439
aF213
aa(lp717
F1442239751
aF25.258299999999998
aF41.313600000000001
aF29975
aF435
aF244
aa(lp718
F1442239776
aF25.227499999999999
aF41.280700000000003
aF29975
aF435
aF224
aa(lp719
F1442239785
aF25.255400000000002
aF41.306899999999999
aF29975
aF434
aF244
aa(lp720
F1442239809
aF25.2089
aF41.1999
aF29975
aF434
aF244
aa(lp721
F1442239815
aF25.2027
aF41.185600000000001
aF29975
aF434
aF244
aa(lp722
F1442239821
aF25.197399999999998
aF41.173400000000001
aF29975
aF434
aF244
aa(lp723
F1442239827
aF25.192299999999999
aF41.161700000000003
aF29975
aF433
aF244
aa(lp724
F1442239834
aF25.186499999999999
aF41.148499999999999
aF29975
aF433
aF244
aa(lp725
F1442239839
aF25.1815
aF41.136899999999997
aF30000
aF433
aF244
aa(lp726
F1442239842
aF25.178599999999999
aF41.130400000000002
aF29975
aF434
aF244
aa(lp727
F1442239848
aF25.173300000000001
aF41.118099999999998
aF29975
aF434
aF244
aa(lp728
F1442239854
aF25.1691
aF41.108499999999999
aF29975
aF434
aF244
aa(lp729
F1442239857
aF25.165099999999999
aF41.099499999999999
aF29975
aF433
aF244
aa(lp730
F1442239863
aF25.160299999999999
aF41.088299999999997
aF29975
aF434
aF244
aa(lp731
F1442239869
aF25.155200000000001
aF41.076500000000003
aF29975
aF434
aF244
aa(lp732
F1442239872
aF25.152100000000001
aF41.069499999999998
aF29975
aF434
aF244
aa(lp733
F1442239882
aF25.144100000000002
aF41.051200000000001
aF29975
aF434
aF244
aa(lp734
F1442239885
aF25.1417
aF41.045699999999997
aF29975
aF434
aF244
aa(lp735
F1442239894
aF25.133600000000001
aF41.027099999999997
aF29975
aF434
aF244
aa(lp736
F1442239897
aF25.1309
aF41.020699999999998
aF29975
aF434
aF244
aa(lp737
F1442239906
aF25.123899999999999
aF41.004899999999999
aF29975
aF433
aF244
aa(lp738
F1442239915
aF25.115300000000001
aF40.985100000000003
aF29975
aF433
aF244
aa(lp739
F1442239918
aF25.1127
aF40.979300000000002
aF29975
aF433
aF244
aa(lp740
F1442239921
aF25.1098
aF40.972499999999997
aF29975
aF433
aF244
aa(lp741
F1442239930
aF25.101700000000001
aF40.9542
aF29975
aF433
aF244
aa(lp742
F1442239939
aF25.093900000000001
aF40.936199999999999
aF29975
aF433
aF244
aa(lp743
F1442239945
aF25.0886
aF40.924199999999999
aF29975
aF434
aF243
aa(lp744
F1442239949
aF25.086099999999998
aF40.918900000000001
aF29975
aF434
aF242
aa(lp745
F1442239958
aF25.076599999999999
aF40.901200000000003
aF29975
aF435
aF237
aa(lp746
F1442239960
aF25.0732
aF40.895600000000002
aF29975
aF435
aF236
aa(lp747
F1442239969
aF25.062100000000001
aF40.8795
aF30000
aF436
aF230
aa(lp748
F1442239978
aF25.049499999999998
aF40.8645
aF30000
aF437
aF225
aa(lp749
F1442239990
aF25.031099999999999
aF40.847000000000001
aF30025
aF439
aF218
aa(lp750
F1442239994
aF25.026199999999999
aF40.8429
aF30025
aF439
aF216
aa(lp751
F1442239997
aF25.0215
aF40.838999999999999
aF30025
aF439
aF216
aa(lp752
F1442240006
aF25.006799999999998
aF40.827199999999998
aF30025
aF438
aF216
aa(lp753
F1442240009
aF25.0016
aF40.823099999999997
aF30025
aF438
aF216
aa(lp754
F1442240015
aF24.991199999999999
aF40.814799999999998
aF30025
aF437
aF215
aa(lp755
F1442240021
aF24.9817
aF40.807200000000002
aF30025
aF437
aF215
aa(lp756
F1442240027
aF24.971499999999999
aF40.798999999999999
aF30025
aF436
aF216
aa(lp757
F1442240030
aF24.9665
aF40.795000000000002
aF30025
aF436
aF216
aa(lp758
F1442240033
aF24.961600000000001
aF40.7911
aF30025
aF436
aF216
aa(lp759
F1442240042
aF24.947199999999999
aF40.779600000000002
aF30000
aF435
aF216
aa(lp760
F1442240045
aF24.942399999999999
aF40.775799999999997
aF30000
aF434
aF216
aa(lp761
F1442240054
aF24.9268
aF40.763300000000001
aF30000
aF433
aF215
aa(lp762
F1442240057
aF24.9221
aF40.759599999999999
aF30000
aF433
aF215
aa(lp763
F1442240063
aF24.912600000000001
aF40.751899999999999
aF30000
aF434
aF216
aa(lp764
F1442240067
aF24.9072
aF40.747700000000002
aF29975
aF434
aF216
aa(lp765
F1442240075
aF24.892199999999999
aF40.735700000000001
aF29975
aF433
aF215
aa(lp766
F1442240079
aF24.887699999999999
aF40.732100000000003
aF29975
aF433
aF215
aa(lp767
F1442240083
aF24.882200000000001
aF40.727699999999999
aF29975
aF433
aF215
aa(lp768
F1442240091
aF24.867799999999999
aF40.716299999999997
aF29950
aF433
aF215
aa(lp769
F1442240094
aF24.8627
aF40.712299999999999
aF29950
aF433
aF215
aa(lp770
F1442240098
aF24.8583
aF40.7087
aF29950
aF433
aF215
aa(lp771
F1442240109
aF24.8383
aF40.692799999999998
aF29950
aF434
aF215
aa(lp772
F1442240121
aF24.8187
aF40.677199999999999
aF29925
aF435
aF216
aa(lp773
F1442240127
aF24.808199999999999
aF40.668900000000001
aF29925
aF435
aF216
aa(lp774
F1442240133
aF24.798300000000001
aF40.661000000000001
aF29925
aF436
aF215
aa(lp775
F1442240139
aF24.789100000000001
aF40.653700000000001
aF29950
aF436
aF215
aa(lp776
F1442240142
aF24.783999999999999
aF40.6496
aF29950
aF436
aF216
aa(lp777
F1442240145
aF24.779
aF40.645600000000002
aF29950
aF437
aF215
aa(lp778
F1442240157
aF24.759899999999998
aF40.630499999999998
aF29925
aF438
aF215
aa(lp779
F1442240163
aF24.7485
aF40.621499999999997
aF29925
aF438
aF215
aa(lp780
F1442240169
aF24.738900000000001
aF40.613799999999998
aF29950
aF438
aF215
aa(lp781
F1442240175
aF24.7287
aF40.606200000000001
aF29950
aF439
aF212
aa(lp782
F1442240178
aF24.722899999999999
aF40.602600000000002
aF29950
aF440
aF210
aa(lp783
F1442240187
aF24.706700000000001
aF40.593899999999998
aF29975
aF444
aF203
aa(lp784
F1442240190
aF24.700299999999999
aF40.591099999999997
aF29975
aF445
aF201
aa(lp785
F1442240194
aF24.695399999999999
aF40.588999999999999
aF29975
aF445
aF200
aa(lp786
F1442240202
aF24.677399999999999
aF40.582299999999996
aF30000
aF446
aF197
aa(lp787
F1442240205
aF24.671099999999999
aF40.580100000000002
aF30000
aF446
aF197
aa(lp788
F1442240215
aF24.6525
aF40.5745
aF30000
aF447
aF194
aa(lp789
F1442240218
aF24.6465
aF40.572800000000001
aF30000
aF447
aF193
aa(lp790
F1442240221
aF24.640499999999999
aF40.571300000000001
aF30025
aF447
aF193
aa(lp791
F1442240224
aF24.6343
aF40.569800000000001
aF30025
aF447
aF191
aa(lp792
F1442240234
aF24.615500000000001
aF40.566099999999999
aF30025
aF447
aF189
aa(lp793
F1442240239
aF24.603400000000001
aF40.5642
aF30025
aF447
aF187
aa(lp794
F1442240245
aF24.590800000000002
aF40.5627
aF30025
aF447
aF185
aa(lp795
F1442240254
aF24.572299999999998
aF40.561199999999999
aF30025
aF446
aF183
aa(lp796
F1442240257
aF24.565799999999999
aF40.5608
aF30025
aF446
aF183
aa(lp797
F1442240263
aF24.553699999999999
aF40.560000000000002
aF30025
aF445
aF183
aa(lp798
F1442240267
aF24.5472
aF40.559600000000003
aF30025
aF445
aF183
aa(lp799
F1442240269
aF24.540500000000002
aF40.559100000000001
aF30025
aF445
aF183
aa(lp800
F1442240278
aF24.522200000000002
aF40.558
aF30025
aF445
aF183
aa(lp801
F1442240284
aF24.509499999999999
aF40.557099999999998
aF30000
aF445
aF183
aa(lp802
F1442240290
aF24.497199999999999
aF40.556399999999996
aF30000
aF444
aF183
aa(lp803
F1442240293
aF24.490300000000001
aF40.555999999999997
aF29975
aF444
aF183
aa(lp804
F1442240303
aF24.471499999999999
aF40.5548
aF29975
aF444
aF183
aa(lp805
F1442240311
aF24.452999999999999
aF40.553600000000003
aF29975
aF443
aF183
aa(lp806
F1442240314
aF24.446999999999999
aF40.553199999999997
aF29975
aF443
aF183
aa(lp807
F1442240321
aF24.434799999999999
aF40.552300000000002
aF29975
aF443
aF183
aa(lp808
F1442240330
aF24.415800000000001
aF40.550600000000003
aF29975
aF443
aF185
aa(lp809
F1442240334
aF24.409400000000002
aF40.549799999999998
aF29975
aF442
aF186
aa(lp810
F1442240336
aF24.403700000000001
aF40.549100000000003
aF29950
aF442
aF186
aa(lp811
F1442240345
aF24.385200000000001
aF40.546799999999998
aF29975
aF442
aF186
aa(lp812
F1442240354
aF24.366800000000001
aF40.544499999999999
aF29975
aF443
aF186
aa(lp813
F1442240358
aF24.360399999999998
aF40.543700000000001
aF29975
aF443
aF186
aa(lp814
F1442240363
aF24.347100000000001
aF40.542000000000002
aF29950
aF443
aF186
aa(lp815
F1442240369
aF24.334900000000001
aF40.540500000000002
aF29950
aF443
aF186
aa(lp816
F1442240375
aF24.322500000000002
aF40.538899999999998
aF29950
aF444
aF186
aa(lp817
F1442240390
aF24.291899999999998
aF40.5351
aF29950
aF444
aF186
aa(lp818
F1442240393
aF24.285699999999999
aF40.534300000000002
aF29950
aF443
aF186
aa(lp819
F1442240403
aF24.267399999999999
aF40.5321
aF29975
aF443
aF186
aa(lp820
F1442240405
aF24.2607
aF40.531199999999998
aF29975
aF442
aF186
aa(lp821
F1442240415
aF24.241900000000001
aF40.5289
aF30000
aF442
aF186
aa(lp822
F1442240418
aF24.235600000000002
aF40.528100000000002
aF30000
aF442
aF186
aa(lp823
F1442240427
aF24.2178
aF40.525799999999997
aF30000
aF442
aF186
aa(lp824
F1442240439
aF24.192399999999999
aF40.5227
aF30000
aF441
aF186
aa(lp825
F1442240442
aF24.186299999999999
aF40.521900000000002
aF30000
aF441
aF186
aa(lp826
F1442240451
aF24.1677
aF40.519500000000001
aF30000
aF441
aF186
aa(lp827
F1442240455
aF24.1617
aF40.518799999999999
aF30000
aF440
aF186
aa(lp828
F1442240466
aF24.1373
aF40.515900000000002
aF30000
aF440
aF185
aa(lp829
F1442240469
aF24.1311
aF40.515099999999997
aF30000
aF440
aF185
aa(lp830
F1442240475
aF24.1187
aF40.5137
aF30000
aF441
aF185
aa(lp831
F1442240481
aF24.1068
aF40.5124
aF30000
aF441
aF185
aa(lp832
F1442240490
aF24.087700000000002
aF40.510399999999997
aF29975
aF441
aF185
aa(lp833
F1442240493
aF24.081800000000001
aF40.509799999999998
aF29975
aF441
aF185
aa(lp834
F1442240499
aF24.069600000000001
aF40.508499999999998
aF29975
aF440
aF185
aa(lp835
F1442240505
aF24.057300000000001
aF40.506999999999998
aF29975
aF440
aF185
aa(lp836
F1442240514
aF24.038
aF40.504899999999999
aF29975
aF441
aF185
aa(lp837
F1442240521
aF24.0259
aF40.503500000000003
aF29975
aF442
aF185
aa(lp838
F1442240527
aF24.0138
aF40.502099999999999
aF29975
aF442
aF185
aa(lp839
F1442240534
aF24.001300000000001
aF40.500700000000002
aF29975
aF442
aF185
aa(lp840
F1442240539
aF23.9894
aF40.499400000000001
aF29975
aF442
aF185
aa(lp841
F1442240545
aF23.976900000000001
aF40.497999999999998
aF29975
aF442
aF185
aa(lp842
F1442240551
aF23.964300000000001
aF40.496600000000001
aF29975
aF443
aF185
aa(lp843
F1442240554
aF23.958300000000001
aF40.496000000000002
aF29975
aF443
aF185
aa(lp844
F1442240563
aF23.939900000000002
aF40.493899999999996
aF29975
aF443
aF185
aa(lp845
F1442240566
aF23.933700000000002
aF40.493299999999998
aF29975
aF443
aF185
aa(lp846
F1442240575
aF23.915400000000002
aF40.491300000000003
aF29975
aF443
aF185
aa(lp847
F1442240578
aF23.908999999999999
aF40.490499999999997
aF29975
aF443
aF185
aa(lp848
F1442240581
aF23.902699999999999
aF40.489899999999999
aF29975
aF443
aF185
aa(lp849
F1442240590
aF23.883700000000001
aF40.487699999999997
aF29975
aF442
aF185
aa(lp850
F1442240593
aF23.8779
aF40.487099999999998
aF30000
aF442
aF185
aa(lp851
F1442240602
aF23.8596
aF40.485100000000003
aF30000
aF441
aF185
aa(lp852
F1442240605
aF23.853300000000001
aF40.484400000000001
aF30025
aF441
aF185
aa(lp853
F1442240611
aF23.841000000000001
aF40.4831
aF30025
aF441
aF185
aa(lp854
F1442240618
aF23.828499999999998
aF40.481699999999996
aF30000
aF441
aF185
aa(lp855
F1442240623
aF23.816500000000001
aF40.480400000000003
aF30000
aF441
aF185
aa(lp856
F1442240626
aF23.810400000000001
aF40.479700000000001
aF30000
aF441
aF185
aa(lp857
F1442240635
aF23.792000000000002
aF40.477400000000003
aF30000
aF440
aF187
aa(lp858
F1442240639
aF23.786100000000001
aF40.476500000000001
aF30000
aF440
aF188
aa(lp859
F1442240641
aF23.779900000000001
aF40.4754
aF30000
aF439
aF189
aa(lp860
F1442240644
aF23.773099999999999
aF40.474200000000003
aF30000
aF439
aF189
aa(lp861
F1442240653
aF23.755400000000002
aF40.4711
aF30000
aF439
aF188
aa(lp862
F1442240659
aF23.742999999999999
aF40.468899999999998
aF29975
aF439
aF189
aa(lp863
F1442240665
aF23.731200000000001
aF40.4666
aF29975
aF437
aF190
aa(lp864
F1442240670
aF23.724900000000002
aF40.465200000000003
aF29975
aF437
aF191
aa(lp865
F1442240681
aF23.701000000000001
aF40.459000000000003
aF30000
aF434
aF194
aa(lp866
F1442240684
aF23.694900000000001
aF40.457299999999996
aF30000
aF435
aF194
aa(lp867
F1442240694
aF23.677700000000002
aF40.452399999999997
aF30000
aF434
aF194
aa(lp868
F1442240696
aF23.671600000000002
aF40.450600000000001
aF30000
aF433
aF194
aa(lp869
F1442240703
aF23.659199999999998
aF40.447200000000002
aF29975
aF434
aF194
aa(lp870
F1442240711
aF23.642199999999999
aF40.442500000000003
aF29975
aF435
aF193
aa(lp871
F1442240714
aF23.636199999999999
aF40.440899999999999
aF29975
aF435
aF193
aa(lp872
F1442240723
aF23.618500000000001
aF40.436799999999998
aF29975
aF436
aF191
aa(lp873
F1442240726
aF23.6113
aF40.435299999999998
aF29975
aF436
aF190
aa(lp874
F1442240729
aF23.6053
aF40.434100000000001
aF29975
aF438
aF189
aa(lp875
F1442240739
aF23.587299999999999
aF40.430900000000001
aF29950
aF439
aF189
aa(lp876
F1442240742
aF23.581900000000001
aF40.429900000000004
aF29950
aF439
aF189
aa(lp877
F1442240745
aF23.5746
aF40.428600000000003
aF29950
aF439
aF189
aa(lp878
F1442240754
aF23.556699999999999
aF40.4255
aF29950
aF440
aF189
aa(lp879
F1442240760
aF23.544599999999999
aF40.423299999999998
aF29950
aF440
aF189
aa(lp880
F1442240766
aF23.531300000000002
aF40.420900000000003
aF29950
aF440
aF189
aa(lp881
F1442240769
aF23.525500000000001
aF40.419800000000002
aF29950
aF440
aF189
aa(lp882
F1442240778
aF23.5075
aF40.416499999999999
aF29975
aF440
aF189
aa(lp883
F1442240781
aF23.500900000000001
aF40.415199999999999
aF29975
aF439
aF189
aa(lp884
F1442240784
aF23.494700000000002
aF40.414099999999998
aF29975
aF439
aF189
aa(lp885
F1442240794
aF23.476600000000001
aF40.410600000000002
aF29975
aF439
aF190
aa(lp886
F1442240800
aF23.464300000000001
aF40.408200000000001
aF29975
aF439
aF189
aa(lp887
F1442240806
aF23.452400000000001
aF40.405999999999999
aF30000
aF439
aF189
aa(lp888
F1442240810
aF23.4467
aF40.404899999999998
aF30000
aF439
aF189
aa(lp889
F1442240815
aF23.4344
aF40.4026
aF30000
aF439
aF189
aa(lp890
F1442240819
aF23.427600000000002
aF40.401400000000002
aF30025
aF438
aF189
aa(lp891
F1442240827
aF23.4102
aF40.398299999999999
aF30025
aF438
aF189
aa(lp892
F1442240830
aF23.404299999999999
aF40.397199999999998
aF30000
aF438
aF189
aa(lp893
F1442240843
aF23.380299999999998
aF40.392800000000001
aF30000
aF437
aF189
aa(lp894
F1442240845
aF23.374099999999999
aF40.3917
aF30025
aF437
aF189
aa(lp895
F1442240854
aF23.3551
aF40.388199999999998
aF30025
aF438
aF189
aa(lp896
F1442240858
aF23.3491
aF40.387099999999997
aF30025
aF438
aF189
aa(lp897
F1442240866
aF23.331
aF40.383800000000001
aF30000
aF437
aF189
aa(lp898
F1442240875
aF23.3125
aF40.380499999999998
aF30000
aF438
aF189
aa(lp899
F1442240878
aF23.3065
aF40.379300000000001
aF29975
aF439
aF189
aa(lp900
F1442240887
aF23.288599999999999
aF40.376100000000001
aF29975
aF439
aF189
aa(lp901
F1442240890
aF23.282399999999999
aF40.374899999999997
aF29975
aF439
aF189
aa(lp902
F1442240896
aF23.270600000000002
aF40.372500000000002
aF29950
aF438
aF191
aa(lp903
F1442240902
aF23.258700000000001
aF40.369300000000003
aF29950
aF438
aF195
aa(lp904
F1442240911
aF23.2407
aF40.362400000000001
aF29950
aF438
aF201
aa(lp905
F1442240919
aF23.229399999999998
aF40.3568
aF29925
aF438
aF205
aa(lp906
F1442240929
aF23.208400000000001
aF40.343200000000003
aF29925
aF437
aF214
aa(lp907
F1442240935
aF23.199100000000001
aF40.335700000000003
aF29925
aF438
aF218
aa(lp908
F1442240941
aF23.189699999999998
aF40.326900000000002
aF29950
aF436
aF222
aa(lp909
F1442240945
aF23.185400000000001
aF40.322400000000002
aF29950
aF436
aF224
aa(lp910
F1442240951
aF23.1767
aF40.312399999999997
aF29975
aF435
aF228
aa(lp911
F1442240954
aF23.172499999999999
aF40.307000000000002
aF29975
aF435
aF230
aa(lp912
F1442240963
aF23.161999999999999
aF40.2913
aF30000
aF433
aF236
aa(lp913
F1442240966
aF23.1586
aF40.285400000000003
aF30000
aF433
aF238
aa(lp914
F1442240975
aF23.149999999999999
aF40.267699999999998
aF30000
aF432
aF244
aa(lp915
F1442240978
aF23.147600000000001
aF40.2622
aF30000
aF431
aF245
aa(lp916
F1442240981
aF23.145299999999999
aF40.256599999999999
aF30025
aF432
aF246
aa(lp917
F1442240990
aF23.137899999999998
aF40.238100000000003
aF30025
aF431
aF246
aa(lp918
F1442240993
aF23.135400000000001
aF40.231999999999999
aF30025
aF431
aF246
aa(lp919
F1442240999
aF23.130700000000001
aF40.220100000000002
aF30025
aF431
aF246
aa(lp920
F1442241003
aF23.1282
aF40.213799999999999
aF30025
aF431
aF246
aa(lp921
F1442241011
aF23.121500000000001
aF40.196100000000001
aF30025
aF430
aF248
aa(lp922
F1442241019
aF23.117000000000001
aF40.183
aF30025
aF431
aF249
aa(lp923
F1442241020
aF23.114899999999999
aF40.176699999999997
aF30025
aF430
aF250
aa(lp924
F1442241029
aF23.109200000000001
aF40.1584
aF30000
aF430
aF252
aa(lp925
F1442241035
aF23.105699999999999
aF40.146099999999997
aF30000
aF431
aF252
aa(lp926
F1442241041
aF23.1021
aF40.134099999999997
aF30000
aF431
aF252
aa(lp927
F1442241045
aF23.100200000000001
aF40.127699999999997
aF30000
aF431
aF252
aa(lp928
F1442241054
aF23.0947
aF40.109200000000001
aF29900
aF431
aF252
aa(lp929
F1442241057
aF23.092600000000001
aF40.101999999999997
aF29800
aF431
aF252
aa(lp930
F1442241063
aF23.088999999999999
aF40.090000000000003
aF29550
aF433
aF252
aa(lp931
F1442241070
aF23.0853
aF40.077500000000001
aF29200
aF436
aF252
aa(lp932
F1442241075
aF23.081499999999998
aF40.064999999999998
aF28725
aF440
aF252
aa(lp933
F1442241081
aF23.0777
aF40.052100000000003
aF28325
aF445
aF252
aa(lp934
F1442241087
aF23.073699999999999
aF40.038600000000002
aF27975
aF446
aF252
aa(lp935
F1442241093
aF23.069800000000001
aF40.025500000000001
aF27775
aF443
aF252
aa(lp936
F1442241099
aF23.065999999999999
aF40.012799999999999
aF27650
aF438
aF252
aa(lp937
F1442241102
aF23.064399999999999
aF40.0075
aF27600
aF435
aF252
aa(lp938
F1442241118
aF23.0549
aF39.9756
aF27325
aF424
aF252
aa(lp939
F1442241123
aF23.051400000000001
aF39.963900000000002
aF27225
aF419
aF252
aa(lp940
F1442241129
aF23.047999999999998
aF39.952199999999998
aF27100
aF415
aF252
aa(lp941
F1442241139
aF23.0425
aF39.933799999999998
aF26825
aF411
aF252
aa(lp942
F1442241141
aF23.040700000000001
aF39.927900000000001
aF26725
aF410
aF252
aa(lp943
F1442241147
aF23.037099999999999
aF39.915900000000001
aF26475
aF410
aF252
aa(lp944
F1442241155
aF23.033999999999999
aF39.9054
aF26275
aF410
aF252
aa(lp945
F1442241163
aF23.028400000000001
aF39.886499999999998
aF25875
aF410
aF252
aa(lp946
F1442241171
aF23.023
aF39.868499999999997
aF25650
aF405
aF252
aa(lp947
F1442241175
aF23.0215
aF39.863300000000002
aF25600
aF404
aF252
aa(lp948
F1442241181
aF23.017900000000001
aF39.851100000000002
aF25450
aF400
aF252
aa(lp949
F1442241184
aF23.016500000000001
aF39.846299999999999
aF25375
aF400
aF252
aa(lp950
F1442241202
aF23.0059
aF39.810600000000001
aF24825
aF394
aF252
aa(lp951
F1442241205
aF23.004300000000001
aF39.805100000000003
aF24775
aF392
aF252
aa(lp952
F1442241211
aF23.000800000000002
aF39.793500000000002
aF24625
aF389
aF252
aa(lp953
F1442241218
aF22.997599999999998
aF39.782800000000002
aF24450
aF387
aF252
aa(lp954
F1442241223
aF22.994199999999999
aF39.7714
aF24250
aF386
aF252
aa(lp955
F1442241229
aF22.9908
aF39.759999999999998
aF24025
aF385
aF252
aa(lp956
F1442241235
aF22.987500000000001
aF39.749000000000002
aF23825
aF384
aF252
aa(lp957
F1442241238
aF22.986000000000001
aF39.7438
aF23750
aF383
aF252
aa(lp958
F1442241241
aF22.984300000000001
aF39.738399999999999
aF23650
aF383
aF252
aa(lp959
F1442241250
aF22.979299999999999
aF39.721499999999999
aF23300
aF382
aF252
aa(lp960
F1442241254
aF22.977599999999999
aF39.716000000000001
aF23175
aF382
aF252
aa(lp961
F1442241262
aF22.9727
aF39.6995
aF22825
aF383
aF252
aa(lp962
F1442241265
aF22.971
aF39.694000000000003
aF22700
aF383
aF252
aa(lp963
F1442241275
aF22.966200000000001
aF39.677500000000002
aF22400
aF381
aF252
aa(lp964
F1442241280
aF22.962900000000001
aF39.666699999999999
aF22225
aF380
aF252
aa(lp965
F1442241287
aF22.959399999999999
aF39.655000000000001
aF22075
aF376
aF252
aa(lp966
F1442241293
aF22.956800000000001
aF39.646299999999997
aF22000
aF371
aF252
aa(lp967
F1442241299
aF22.953199999999999
aF39.634099999999997
aF21900
aF366
aF252
aa(lp968
F1442241302
aF22.951599999999999
aF39.628599999999999
aF21875
aF364
aF252
aa(lp969
F1442241315
aF22.945399999999999
aF39.6081
aF21725
aF356
aF252
aa(lp970
F1442241317
aF22.943899999999999
aF39.602800000000002
aF21700
aF354
aF252
aa(lp971
F1442241320
aF22.9422
aF39.5974
aF21650
aF351
aF252
aa(lp972
F1442241326
aF22.9392
aF39.587400000000002
aF21600
aF347
aF252
aa(lp973
F1442241329
aF22.937799999999999
aF39.582500000000003
aF21550
aF344
aF252
aa(lp974
F1442241339
aF22.933399999999999
aF39.567900000000002
aF21400
aF339
aF252
aa(lp975
F1442241347
aF22.928899999999999
aF39.552799999999998
aF21175
aF336
aF252
aa(lp976
F1442241350
aF22.927600000000002
aF39.548400000000001
aF21100
aF335
aF252
aa(lp977
F1442241354
aF22.926200000000001
aF39.543700000000001
aF21000
aF335
aF252
aa(lp978
F1442241362
aF22.921600000000002
aF39.528500000000001
aF20675
aF334
aF252
aa(lp979
F1442241365
aF22.920200000000001
aF39.523899999999998
aF20550
aF335
aF252
aa(lp980
F1442241374
aF22.9161
aF39.509799999999998
aF20225
aF337
aF252
aa(lp981
F1442241377
aF22.9145
aF39.5047
aF20150
aF337
aF252
aa(lp982
F1442241381
aF22.913
aF39.499600000000001
aF20075
aF335
aF252
aa(lp983
F1442241386
aF22.9102
aF39.490299999999998
aF19925
aF333
aF252
aa(lp984
F1442241392
aF22.907399999999999
aF39.481000000000002
aF19775
aF332
aF252
aa(lp985
F1442241399
aF22.904399999999999
aF39.470700000000001
aF19625
aF331
aF252
aa(lp986
F1442241405
aF22.901499999999999
aF39.461100000000002
aF19475
aF330
aF252
aa(lp987
F1442241411
aF22.898599999999998
aF39.451799999999999
aF19325
aF328
aF252
aa(lp988
F1442241415
aF22.897200000000002
aF39.447099999999999
aF19250
aF327
aF252
aa(lp989
F1442241423
aF22.892900000000001
aF39.4328
aF19075
aF326
aF252
aa(lp990
F1442241439
aF22.887
aF39.4131
aF18950
aF325
aF252
aa(lp991
F1442241441
aF22.884399999999999
aF39.404400000000003
aF18825
aF325
aF252
aa(lp992
F1442241447
aF22.881599999999999
aF39.395000000000003
aF18625
aF326
aF252
aa(lp993
F1442241450
aF22.881
aF39.392899999999997
aF18575
aF326
aF252
aa(lp994
F1442241459
aF22.875800000000002
aF39.375599999999999
aF18150
aF330
aF252
aa(lp995
F1442241462
aF22.874400000000001
aF39.371200000000002
aF18050
aF331
aF252
aa(lp996
F1442241471
aF22.870100000000001
aF39.356699999999996
aF17725
aF332
aF252
aa(lp997
F1442241474
aF22.8687
aF39.352200000000003
aF17625
aF331
aF252
aa(lp998
F1442241477
aF22.8673
aF39.347299999999997
aF17525
aF331
aF252
aa(lp999
F1442241480
aF22.8659
aF39.342399999999998
aF17425
aF331
aF252
aa(lp1000
F1442241486
aF22.863
aF39.332799999999999
aF17250
aF330
aF252
aa(lp1001
F1442241493
aF22.860199999999999
aF39.323399999999999
aF17100
aF330
aF252
aa(lp1002
F1442241505
aF22.854399999999998
aF39.304499999999997
aF16750
aF329
aF251
aa(lp1003
F1442241511
aF22.851600000000001
aF39.294899999999998
aF16575
aF330
aF252
aa(lp1004
F1442241517
aF22.848600000000001
aF39.285200000000003
aF16375
aF330
aF252
aa(lp1005
F1442241526
aF22.8443
aF39.270600000000002
aF16150
aF327
aF252
aa(lp1006
F1442241530
aF22.8429
aF39.265900000000002
aF16100
aF326
aF252
aa(lp1007
F1442241535
aF22.8401
aF39.256500000000003
aF16050
aF323
aF252
aa(lp1008
F1442241547
aF22.834499999999998
aF39.238
aF16000
aF322
aF251
aa(lp1009
F1442241551
aF22.832999999999998
aF39.233199999999997
aF16000
aF323
aF252
aa(lp1010
F1442241555
aF22.831800000000001
aF39.228999999999999
aF16000
aF324
aF251
aa(lp1011
F1442241562
aF22.827400000000001
aF39.214500000000001
aF15950
aF323
aF252
aa(lp1012
F1442241571
aF22.823
aF39.200299999999999
aF15825
aF323
aF252
aa(lp1013
F1442241574
aF22.8217
aF39.195799999999998
aF15750
aF323
aF252
aa(lp1014
F1442241577
aF22.820599999999999
aF39.192
aF15675
aF324
aF251
aa(lp1015
F1442241586
aF22.816099999999999
aF39.177300000000002
aF15425
aF324
aF252
aa(lp1016
F1442241592
aF22.813199999999998
aF39.167700000000004
aF15300
aF321
aF251
aa(lp1017
F1442241598
aF22.810600000000001
aF39.158999999999999
aF15150
aF320
aF251
aa(lp1018
F1442241607
aF22.8063
aF39.145000000000003
aF14825
aF322
aF251
aa(lp1019
F1442241611
aF22.8047
aF39.1404
aF14725
aF322
aF250
aa(lp1020
F1442241614
aF22.802900000000001
aF39.136000000000003
aF14625
aF323
aF246
aa(lp1021
F1442241629
aF22.790199999999999
aF39.116300000000003
aF14250
aF320
aF226
aa(lp1022
F1442241632
aF22.7867
aF39.112900000000003
aF14175
aF319
aF221
aa(lp1023
F1442241642
aF22.775500000000001
aF39.1053
aF13950
aF315
aF205
aa(lp1024
F1442241650
aF22.762799999999999
aF39.101100000000002
aF13750
aF312
aF190
aa(lp1025
F1442241653
aF22.758700000000001
aF39.100499999999997
aF13675
aF311
aF185
aa(lp1026
F1442241656
aF22.7544
aF39.100299999999997
aF13600
aF311
aF181
aa(lp1027
F1442241677
aF22.7227
aF39.101700000000001
aF13225
aF309
aF177
aa(lp1028
F1442241686
aF22.709900000000001
aF39.102400000000003
aF13200
aF312
aF177
aa(lp1029
F1442241695
aF22.6968
aF39.103200000000001
aF13175
aF313
aF177
aa(lp1030
F1442241702
aF22.687999999999999
aF39.103700000000003
aF13175
aF313
aF176
aa(lp1031
F1442241711
aF22.674499999999998
aF39.104500000000002
aF13175
aF312
aF176
aa(lp1032
F1442241714
aF22.670100000000001
aF39.104799999999997
aF13175
aF312
aF176
aa(lp1033
F1442241723
aF22.6572
aF39.105600000000003
aF13200
aF312
aF176
aa(lp1034
F1442241730
aF22.648499999999999
aF39.106099999999998
aF13200
aF312
aF176
aa(lp1035
F1442241738
aF22.6355
aF39.106900000000003
aF13200
aF311
aF176
aa(lp1036
F1442241741
aF22.631
aF39.107199999999999
aF13200
aF310
aF176
aa(lp1037
F1442241747
aF22.622199999999999
aF39.107700000000001
aF13200
aF310
aF176
aa(lp1038
F1442241756
aF22.609500000000001
aF39.108400000000003
aF13200
aF309
aF176
aa(lp1039
F1442241762
aF22.604299999999999
aF39.108699999999999
aF13200
aF309
aF176
aa(lp1040
F1442241771
aF22.587499999999999
aF39.1098
aF13200
aF309
aF176
aa(lp1041
F1442241777
aF22.5824
aF39.110100000000003
aF13200
aF310
aF176
aa(lp1042
F1442241787
aF22.566099999999999
aF39.1111
aF13200
aF310
aF176
aa(lp1043
F1442241795
aF22.552399999999999
aF39.111899999999999
aF13200
aF310
aF176
aa(lp1044
F1442241798
aF22.549299999999999
aF39.112099999999998
aF13200
aF310
aF176
aa(lp1045
F1442241807
aF22.534800000000001
aF39.113
aF13200
aF310
aF176
aa(lp1046
F1442241810
aF22.530999999999999
aF39.113199999999999
aF13200
aF310
aF176
aa(lp1047
F1442241816
aF22.522200000000002
aF39.113799999999998
aF13200
aF310
aF176
aa(lp1048
F1442241826
aF22.509899999999998
aF39.1145
aF13200
aF310
aF176
aa(lp1049
F1442241835
aF22.495999999999999
aF39.115299999999998
aF13200
aF309
aF176
aa(lp1050
F1442241838
aF22.491700000000002
aF39.115600000000001
aF13200
aF309
aF176
aa(lp1051
F1442241847
aF22.4788
aF39.116399999999999
aF13075
aF311
aF176
aa(lp1052
F1442241850
aF22.475899999999999
aF39.116500000000002
aF13000
aF312
aF176
aa(lp1053
F1442241856
aF22.466200000000001
aF39.117100000000001
aF12750
aF317
aF176
aa(lp1054
F1442241862
aF22.456700000000001
aF39.117699999999999
aF12525
aF318
aF176
aa(lp1055
F1442241871
aF22.443000000000001
aF39.118499999999997
aF12325
aF316
aF176
aa(lp1056
F1442241874
aF22.438400000000001
aF39.1188
aF12275
aF315
aF178
aa(lp1057
F1442241898
aF22.406099999999999
aF39.107599999999998
aF12175
aF307
aF215
aa(lp1058
F1442241907
aF22.397400000000001
aF39.098500000000001
aF12175
aF307
aF228
aa(lp1059
F1442241913
aF22.392199999999999
aF39.090400000000002
aF12175
aF307
aF239
aa(lp1060
F1442241917
aF22.3903
aF39.086300000000001
aF12175
aF307
aF244
aa(lp1061
F1442241922
aF22.388000000000002
aF39.079700000000003
aF12175
aF308
aF251
aa(lp1062
F1442241931
aF22.385200000000001
aF39.063899999999997
aF12200
aF307
aF262
aa(lp1063
F1442241937
aF22.3841
aF39.054400000000001
aF12200
aF307
aF263
aa(lp1064
F1442241946
aF22.382899999999999
aF39.040799999999997
aF12200
aF308
aF264
aa(lp1065
F1442241950
aF22.382400000000001
aF39.035899999999998
aF12200
aF308
aF264
aa(lp1066
F1442241958
aF22.3812
aF39.021900000000002
aF12200
aF308
aF264
aa(lp1067
F1442241961
aF22.380700000000001
aF39.016800000000003
aF12200
aF309
aF264
aa(lp1068
F1442241970
aF22.379300000000001
aF39.002800000000001
aF12200
aF311
aF264
aa(lp1069
F1442241974
aF22.378900000000002
aF38.998399999999997
aF12200
aF311
aF263
aa(lp1070
F1442241983
aF22.377500000000001
aF38.984400000000001
aF12200
aF311
aF263
aa(lp1071
F1442241986
aF22.376999999999999
aF38.979799999999997
aF12200
aF310
aF263
aa(lp1072
F1442241992
aF22.376200000000001
aF38.971400000000003
aF12200
aF310
aF263
aa(lp1073
F1442242001
aF22.374700000000001
aF38.956299999999999
aF12200
aF310
aF264
aa(lp1074
F1442242007
aF22.373799999999999
aF38.947200000000002
aF12200
aF310
aF264
aa(lp1075
F1442242013
aF22.372900000000001
aF38.937899999999999
aF12175
aF309
aF264
aa(lp1076
F1442242019
aF22.372
aF38.928699999999999
aF12150
aF308
aF264
aa(lp1077
F1442242022
aF22.371500000000001
aF38.923499999999997
aF12125
aF307
aF264
aa(lp1078
F1442242031
aF22.370200000000001
aF38.9101
aF12050
aF303
aF264
aa(lp1079
F1442242035
aF22.369700000000002
aF38.9056
aF12025
aF302
aF264
aa(lp1080
F1442242037
aF22.369299999999999
aF38.900500000000001
aF11975
aF300
aF264
aa(lp1081
F1442242046
aF22.367999999999999
aF38.887799999999999
aF11875
aF295
aF264
aa(lp1082
F1442242050
aF22.367599999999999
aF38.882899999999999
aF11850
aF293
aF264
aa(lp1083
F1442242058
aF22.366499999999998
aF38.871899999999997
aF11775
aF289
aF264
aa(lp1084
F1442242067
aF22.365200000000002
aF38.857199999999999
aF11675
aF283
aF264
aa(lp1085
F1442242070
aF22.364799999999999
aF38.853099999999998
aF11650
aF281
aF264
aa(lp1086
F1442242073
aF22.3644
aF38.848700000000001
aF11625
aF279
aF264
aa(lp1087
F1442242082
aF22.363199999999999
aF38.835700000000003
aF11550
aF273
aF264
aa(lp1088
F1442242089
aF22.362300000000001
aF38.827800000000003
aF11475
aF270
aF261
aa(lp1089
F1442242095
aF22.360399999999998
aF38.820300000000003
aF11400
aF266
aF252
aa(lp1090
F1442242098
aF22.358899999999998
aF38.816400000000002
aF11350
aF265
aF246
aa(lp1091
F1442242101
aF22.357099999999999
aF38.813000000000002
aF11325
aF262
aF239
aa(lp1092
F1442242110
aF22.350200000000001
aF38.804200000000002
aF11225
aF256
aF224
aa(lp1093
F1442242113
aF22.3475
aF38.8018
aF11200
aF254
aF218
aa(lp1094
F1442242122
aF22.337700000000002
aF38.796399999999998
aF11100
aF247
aF200
aa(lp1095
F1442242126
aF22.334900000000001
aF38.795400000000001
aF11075
aF245
aF197
aa(lp1096
F1442242131
aF22.328199999999999
aF38.793300000000002
aF11000
aF242
aF195
aa(lp1097
F1442242134
aF22.3245
aF38.792299999999997
aF10950
aF241
aF194
aa(lp1098
F1442242143
aF22.314599999999999
aF38.790700000000001
aF10750
aF241
aF183
aa(lp1099
F1442242171
aF22.287800000000001
aF38.802999999999997
aF10175
aF238
aF143
aa(lp1100
F1442242182
aF22.276599999999998
aF38.811999999999998
aF9925
aF238
aF142
aa(lp1101
F1442242188
aF22.271100000000001
aF38.816600000000001
aF9775
aF238
aF142
aa(lp1102
F1442242192
aF22.2683
aF38.818899999999999
aF9700
aF239
aF142
aa(lp1103
F1442242201
aF22.260400000000001
aF38.825400000000002
aF9500
aF240
aF142
aa(lp1104
F1442242210
aF22.252400000000002
aF38.832000000000001
aF9325
aF239
aF142
aa(lp1105
F1442242213
aF22.250699999999998
aF38.833300000000001
aF9300
aF239
aF142
aa(lp1106
F1442242219
aF22.2441
aF38.838700000000003
aF9150
aF239
aF142
aa(lp1107
F1442242222
aF22.2425
aF38.840000000000003
aF9100
aF239
aF142
aa(lp1108
F1442242231
aF22.2332
aF38.8476
aF8900
aF238
aF143
aa(lp1109
F1442242237
aF22.227799999999998
aF38.851999999999997
aF8775
aF237
aF143
aa(lp1110
F1442242243
aF22.222200000000001
aF38.856400000000001
aF8675
aF237
aF142
aa(lp1111
F1442242247
aF22.219999999999999
aF38.8583
aF8650
aF237
aF142
aa(lp1112
F1442242253
aF22.214500000000001
aF38.862699999999997
aF8575
aF236
aF142
aa(lp1113
F1442242259
aF22.209099999999999
aF38.867100000000001
aF8500
aF234
aF142
aa(lp1114
F1442242262
aF22.206700000000001
aF38.869100000000003
aF8475
aF236
aF142
aa(lp1115
F1442242274
aF22.195599999999999
aF38.8782
aF8325
aF235
aF142
aa(lp1116
F1442242278
aF22.1934
aF38.880000000000003
aF8300
aF235
aF142
aa(lp1117
F1442242286
aF22.184999999999999
aF38.886899999999997
aF8175
aF235
aF142
aa(lp1118
F1442242292
aF22.18
aF38.890999999999998
aF8125
aF234
aF142
aa(lp1119
F1442242302
aF22.171800000000001
aF38.897799999999997
aF8025
aF234
aF142
aa(lp1120
F1442242305
aF22.1692
aF38.899999999999999
aF8000
aF233
aF142
aa(lp1121
F1442242314
aF22.1614
aF38.906399999999998
aF7925
aF234
aF142
aa(lp1122
F1442242317
aF22.158899999999999
aF38.908499999999997
aF7900
aF235
aF142
aa(lp1123
F1442242327
aF22.1508
aF38.915199999999999
aF7825
aF235
aF142
aa(lp1124
F1442242335
aF22.143000000000001
aF38.921700000000001
aF7750
aF234
aF142
aa(lp1125
F1442242338
aF22.1402
aF38.923900000000003
aF7725
aF233
aF142
aa(lp1126
F1442242341
aF22.137699999999999
aF38.926000000000002
aF7700
aF233
aF142
aa(lp1127
F1442242351
aF22.129799999999999
aF38.932600000000001
aF7625
aF233
aF142
aa(lp1128
F1442242353
aF22.127099999999999
aF38.934800000000003
aF7600
aF232
aF142
aa(lp1129
F1442242362
aF22.119599999999998
aF38.941099999999999
aF7525
aF233
aF142
aa(lp1130
F1442242368
aF22.1143
aF38.945500000000003
aF7500
aF233
aF142
aa(lp1131
F1442242374
aF22.108899999999998
aF38.950000000000003
aF7450
aF233
aF142
aa(lp1132
F1442242382
aF22.103999999999999
aF38.954099999999997
aF7400
aF233
aF142
aa(lp1133
F1442242384
aF22.101400000000002
aF38.956200000000003
aF7375
aF233
aF142
aa(lp1134
F1442242390
aF22.095800000000001
aF38.960900000000002
aF7300
aF233
aF142
aa(lp1135
F1442242399
aF22.088100000000001
aF38.967300000000002
aF7225
aF232
aF142
aa(lp1136
F1442242406
aF22.083100000000002
aF38.971400000000003
aF7200
aF232
aF142
aa(lp1137
F1442242414
aF22.0745
aF38.977499999999999
aF7075
aF233
aF149
aa(lp1138
F1442242426
aF22.062899999999999
aF38.9833
aF6900
aF232
aF157
aa(lp1139
F1442242429
aF22.059899999999999
aF38.9846
aF6875
aF231
aF157
aa(lp1140
F1442242438
aF22.0505
aF38.988799999999998
aF6775
aF228
aF157
aa(lp1141
F1442242445
aF22.044599999999999
aF38.991300000000003
aF6725
aF225
aF158
aa(lp1142
F1442242457
aF22.033200000000001
aF38.996000000000002
aF6600
aF220
aF159
aa(lp1143
F1442242463
aF22.027200000000001
aF38.998399999999997
aF6550
aF214
aF159
aa(lp1144
F1442242466
aF22.024699999999999
aF38.999400000000001
aF6500
aF213
aF160
aa(lp1145
F1442242469
aF22.0214
aF39.000700000000002
aF6425
aF211
aF160
aa(lp1146
F1442242475
aF22.015899999999998
aF39.002699999999997
aF6300
aF212
aF160
aa(lp1147
F1442242481
aF22.0105
aF39.004800000000003
aF6150
aF211
aF159
aa(lp1148
F1442242484
aF22.0076
aF39.006
aF6075
aF212
aF159
aa(lp1149
F1442242490
aF22.001799999999999
aF39.008299999999998
aF5900
aF213
aF159
aa(lp1150
F1442242499
aF21.9937
aF39.011600000000001
aF5650
aF212
aF158
aa(lp1151
F1442242502
aF21.990600000000001
aF39.012900000000002
aF5575
aF210
aF159
aa(lp1152
F1442242517
aF21.977399999999999
aF39.018099999999997
aF5300
aF200
aF159
aa(lp1153
F1442242523
aF21.971800000000002
aF39.020299999999999
aF5175
aF200
aF159
aa(lp1154
F1442242527
aF21.969200000000001
aF39.0214
aF5125
aF199
aF160
aa(lp1155
F1442242535
aF21.961300000000001
aF39.0244
aF4975
aF198
aF159
aa(lp1156
F1442242542
aF21.956
aF39.026600000000002
aF4900
aF196
aF159
aa(lp1157
F1442242554
aF21.945900000000002
aF39.0306
aF4750
aF195
aF160
aa(lp1158
F1442242557
aF21.943200000000001
aF39.031700000000001
aF4725
aF195
aF160
aa(lp1159
F1442242563
aF21.938099999999999
aF39.033700000000003
aF4650
aF195
aF160
aa(lp1160
F1442242566
aF21.935600000000001
aF39.034599999999998
aF4625
aF195
aF160
aa(lp1161
F1442242575
aF21.927900000000001
aF39.037599999999998
aF4475
aF196
aF160
aa(lp1162
F1442242578
aF21.925599999999999
aF39.038499999999999
aF4425
aF196
aF160
aa(lp1163
F1442242587
aF21.917100000000001
aF39.041899999999998
aF4250
aF196
aF159
aa(lp1164
F1442242590
aF21.9148
aF39.0428
aF4200
aF195
aF159
aa(lp1165
F1442242593
aF21.912099999999999
aF39.043900000000001
aF4125
aF195
aF159
aa(lp1166
F1442242603
aF21.9041
aF39.047199999999997
aF3950
aF195
aF159
aa(lp1167
F1442242608
aF21.8992
aF39.049199999999999
aF3850
aF194
aF159
aa(lp1168
F1442242618
aF21.8916
aF39.052199999999999
aF3725
aF193
aF159
aa(lp1169
F1442242620
aF21.889099999999999
aF39.053199999999997
aF3675
aF193
aF160
aa(lp1170
F1442242624
aF21.886299999999999
aF39.054200000000002
aF3650
aF194
aF160
aa(lp1171
F1442242635
aF21.876000000000001
aF39.058300000000003
aF3500
aF196
aF159
aa(lp1172
F1442242639
aF21.8734
aF39.059399999999997
aF3450
aF196
aF159
aa(lp1173
F1442242645
aF21.868099999999998
aF39.061500000000002
aF3350
aF197
aF159
aa(lp1174
F1442242651
aF21.8627
aF39.063699999999997
aF3250
aF197
aF159
aa(lp1175
F1442242654
aF21.860199999999999
aF39.064700000000002
aF3200
aF197
aF159
aa(lp1176
F1442242663
aF21.8522
aF39.067799999999998
aF3050
aF197
aF159
aa(lp1177
F1442242669
aF21.847000000000001
aF39.069899999999997
aF2925
aF197
aF159
aa(lp1178
F1442242675
aF21.841899999999999
aF39.072000000000003
aF2825
aF196
aF159
aa(lp1179
F1442242678
aF21.838999999999999
aF39.073099999999997
aF2775
aF196
aF159
aa(lp1180
F1442242687
aF21.831600000000002
aF39.076000000000001
aF2625
aF194
aF160
aa(lp1181
F1442242693
aF21.8261
aF39.078099999999999
aF2500
aF193
aF160
aa(lp1182
F1442242702
aF21.8186
aF39.081099999999999
aF2375
aF191
aF160
aa(lp1183
F1442242706
aF21.815999999999999
aF39.082099999999997
aF2325
aF190
aF160
aa(lp1184
F1442242715
aF21.808700000000002
aF39.085000000000001
aF2175
aF188
aF159
aa(lp1185
F1442242718
aF21.806000000000001
aF39.086100000000002
aF2125
aF187
aF159
aa(lp1186
F1442242724
aF21.800899999999999
aF39.088099999999997
aF2050
aF185
aF160
aa(lp1187
F1442242733
aF21.793500000000002
aF39.090899999999998
aF1925
aF181
aF160
aa(lp1188
F1442242739
aF21.788599999999999
aF39.0929
aF1825
aF180
aF159
aa(lp1189
F1442242746
aF21.784099999999999
aF39.094700000000003
aF1750
aF180
aF159
aa(lp1190
F1442242754
aF21.777000000000001
aF39.097499999999997
aF1600
aF178
aF160
aa(lp1191
F1442242760
aF21.772400000000001
aF39.099299999999999
aF1500
aF179
aF159
aa(lp1192
F1442242767
aF21.767499999999998
aF39.101300000000002
aF1400
aF177
aF159
aa(lp1193
F1442242769
aF21.7652
aF39.102200000000003
aF1375
aF173
aF159
aa(lp1194
F1442242776
aF21.760400000000001
aF39.104100000000003
aF1300
aF167
aF160
aa(lp1195
F1442242779
aF21.758299999999998
aF39.104999999999997
aF1275
aF165
aF159
aa(lp1196
F1442242785
aF21.753900000000002
aF39.106699999999996
aF1175
aF161
aF159
aa(lp1197
F1442242791
aF21.749700000000001
aF39.108400000000003
aF1100
aF155
aF159
aa(lp1198
F1442242800
aF21.744
aF39.110599999999998
aF1000
aF148
aF160
aa(lp1199
F1442242809
aF21.7379
aF39.113
aF850
aF146
aF159
aa(lp1200
F1442242813
aF21.7361
aF39.113700000000001
aF825
aF143
aF159
aa(lp1201
F1442242821
aF21.730399999999999
aF39.116
aF725
aF140
aF159
aa(lp1202
F1442242825
aF21.7286
aF39.116700000000002
aF700
aF141
aF160
aa(lp1203
F1442242833
aF21.722799999999999
aF39.119
aF600
aF141
aF159
aa(lp1204
F1442242845
aF21.715599999999998
aF39.1218
aF450
aF141
aF160
aa(lp1205
F1442242848
aF21.7136
aF39.122599999999998
aF425
aF141
aF160
aa(lp1206
F1442242854
aF21.709800000000001
aF39.124099999999999
aF325
aF141
aF159
aa(lp1207
F1442242867
aF21.7027
aF39.127000000000002
aF200
aF139
aF159
aa(lp1208
F1442242879
aF21.694900000000001
aF39.130000000000003
aF125
aF130
aF159
aa(lp1209
F1442242891
aF21.689499999999999
aF39.132199999999997
aF150
aF100
aF159
aa(lp1210
F1442242898
aF21.686499999999999
aF39.133299999999998
aF0
aF84
aF160
aa(lp1211
F1442242903
aF21.6844
aF39.134099999999997
aF0
aF76
aF160
aa(lp1212
F1442242909
aF21.682700000000001
aF39.134900000000002
aF0
aF59
aF157
aa(lp1213
F1442242916
aF21.6814
aF39.135399999999997
aF0
aF46
aF151
aa(lp1214
F1442242928
aF21.6798
aF39.136899999999997
aF0
aF23
aF129
aa(lp1215
F1442242931
aF21.679600000000001
aF39.137099999999997
aF0
aF33
aF129
aa(lp1216
F1442242934
aF21.679600000000001
aF39.1372
aF0
aF15
aF129
aa(lp1217
F1442242940
aF21.679300000000001
aF39.137500000000003
aF0
aF22
aF129
aa(lp1218
F1442242944
aF21.679300000000001
aF39.137500000000003
aF0
aF19
aF129
aa(lp1219
F1442242949
aF21.679099999999998
aF39.137700000000002
aF0
aF23
aF132
aa(lp1220
F1442242955
aF21.679099999999998
aF39.137799999999999
aF0
aF2
aF132
aa(lp1221
F1442242961
aF21.679099999999998
aF39.137799999999999
aF0
aF0
aF133
aa(lp1222
F1442242976
aF21.678999999999998
aF39.137900000000002
aF0
aF12
aF132
aa(lp1223
F1442242992
aF21.678699999999999
aF39.138199999999998
aF0
aF20
aF135
aa(lp1224
F1442242995
aF21.6785
aF39.138300000000001
aF0
aF25
aF140
aa(lp1225
F1442243010
aF21.677800000000001
aF39.1389
aF0
aF32
aF149
aa(lp1226
F1442243016
aF21.677600000000002
aF39.139000000000003
aF0
aF32
aF154
aa(lp1227
F1442243025
aF21.6769
aF39.139299999999999
aF0
aF34
aF160
aa(lp1228
F1442243034
aF21.676300000000001
aF39.139499999999998
aF0
aF15
aF160
aa(lp1229
F1442243040
aF21.675799999999999
aF39.139699999999998
aF0
aF15
aF160
aa(lp1230
F1442243043
aF21.675599999999999
aF39.139800000000001
aF0
aF15
aF160
aa(lp1231
F1442243055
aF21.675000000000001
aF39.140099999999997
aF0
aF16
aF160
aa(lp1232
F1442243061
aF21.674399999999999
aF39.140300000000003
aF0
aF16
aF160
aa(lp1233
F1442243065
aF21.674199999999999
aF39.140300000000003
aF0
aF16
aF160
aa(lp1234
F1442243068
aF21.674099999999999
aF39.1404
aF0
aF16
aF160
aa(lp1235
F1442243070
aF21.6738
aF39.140500000000003
aF0
aF17
aF160
aa(lp1236
F1442243077
aF21.673300000000001
aF39.140700000000002
aF0
aF17
aF160
aa(lp1237
F1442243083
aF21.672799999999999
aF39.140900000000002
aF0
aF17
aF160
aa(lp1238
F1442243089
aF21.6723
aF39.141100000000002
aF0
aF17
aF160
aa(lp1239
F1442243092
aF21.6721
aF39.141199999999998
aF0
aF16
aF160
aa(lp1240
F1442243095
aF21.672000000000001
aF39.141199999999998
aF0
aF29
aF160
aa.